##############################################################################
#                                                                            #
# IAR ARM ANSI C/C++ Compiler V4.42A/W32 EVALUATION    01/Nov/2019  02:23:03 #
# Copyright 1999-2005 IAR Systems. All rights reserved.                      #
#                                                                            #
#    Cpu mode        =  interwork                                            #
#    Endian          =  little                                               #
#    Stack alignment =  4                                                    #
#    Source file     =  E:\SE\Port\elf2vkp\Goto_Shortcut_New\editor.c        #
#    Command line    =  E:\SE\Port\elf2vkp\Goto_Shortcut_New\editor.c -D     #
#                       NDEBUG -D A2 -D DB3210 -D C510_R1HA035               #
#                       --preprocess=cl E:\SE\Port\elf2vkp\Goto_Shortcut_New #
#                       \C510_R1HA035\List\ -lC E:\SE\Port\elf2vkp\Goto_Shor #
#                       tcut_New\C510_R1HA035\List\ -lA                      #
#                       E:\SE\Port\elf2vkp\Goto_Shortcut_New\C510_R1HA035\Li #
#                       st\ -o E:\SE\Port\elf2vkp\Goto_Shortcut_New\C510_R1H #
#                       A035\Obj\ -z9 --debug --cpu_mode thumb --endian      #
#                       little --cpu ARM926EJ-S --stack_align 4 --interwork  #
#                       -e --enable_multibytes --fpu None --eec++            #
#                       --preinclude E:\SE\Port\elf2vkp\Goto_Shortcut_New\Ta #
#                       rget\C510_R1HA035.h -I "E:\SE\Embedded Workbench     #
#                       4.0 Evaluation\ARM\INC\" --inline_threshold=2        #
#    List file       =  E:\SE\Port\elf2vkp\Goto_Shortcut_New\C510_R1HA035\Li #
#                       st\editor.lst                                        #
#    Object file     =  E:\SE\Port\elf2vkp\Goto_Shortcut_New\C510_R1HA035\Ob #
#                       j\editor.r79                                         #
#                                                                            #
#                                                                            #
##############################################################################

E:\SE\Port\elf2vkp\Goto_Shortcut_New\editor.c
      1          #include "..\\include\Types.h"
      2          #include "..\\include\Function.h"
      3          
      4          #include "main.h"
      5          #include "editor.h"

   \                                 In segment DATA_C, align 4, align-sorted
   \   static wchar_t const __data TypesIcons[5]
   \                     TypesIcons:
   \   00000000   080875F80708       DC16 2056, 63605, 2055, 63654, 362
   \              A6F86A01    
   \   0000000A   0000               DC8 0, 0

   \                                 In segment DATA_C, align 4, align-sorted
   \   static wchar_t const __data EditorIcons[2]
   \                     EditorIcons:
   \   00000000   61F71905           DC16 63329, 1305
      6          #include "utils.h"
      7          #include "strlib.h"
      8          #include "FileFolder.h"
      9          

   \                                 In segment CODE, align 4, keep-with-next
     10          void Action_Back(BOOK* book, GUI* gui)
     11          {
   \                     ??Action_Back:
   \   00000000   00B5               PUSH     {LR}
     12            BookObj_ReturnPage(book, NIL_EVENT);    
   \   00000002   0021               MOVS     R1,#+0
   \   00000004   ........           _BLF     BookObj_ReturnPage,??BookObj_ReturnPage??rT
     13          }
   \   00000008   00BD               POP      {PC}             ;; return
     14          

   \                                 In segment CODE, align 4, keep-with-next
     15          void AcceptShortcut(BOOK* book)
     16          {
   \                     ??AcceptShortcut:
   \   00000000   10B5               PUSH     {R4,LR}
     17            BookObj_ReturnPage(book, NIL_EVENT);
   \   00000002   0021               MOVS     R1,#+0
   \   00000004   0400               MOVS     R4,R0
   \   00000006   ........           _BLF     BookObj_ReturnPage,??BookObj_ReturnPage??rT
     18            BookObj_ReturnPage(book, ACCEPT_EVENT);
   \   0000000A   ....               B.N      ?Subroutine37
     19          }

   \                                 In segment CODE, align 4, keep-with-next
   \                     ?Subroutine37:
   \   00000000   0221               MOVS     R1,#+2
   \                     ??Subroutine37_0:
   \   00000002   2000               MOVS     R0,R4
   \   00000004   ........           _BLF     BookObj_ReturnPage,??BookObj_ReturnPage??rT
   \   00000008   10BD               POP      {R4,PC}          ;; return
     20          

   \                                 In segment CODE, align 4, keep-with-next
     21          void Menu_SetMainMenu( BOOK* MainMenu, GUI* gui )
     22          {
   \                     ??Menu_SetMainMenu:
   \   00000000   F0B5               PUSH     {R4-R7,LR}
     23            GotoShortcut_Book* mbk = (GotoShortcut_Book*)FindBook(IsMyBook);
     24            
     25            wchar_t* Data = L"MainMenu";
     26            StringRealloc(Data, &mbk->Current->sData);
   \   00000002   1E4F               LDR      R7,??Menu_SetMainMenu_1  ;; `?<Constant L"\\x4d\\x61\\x69\\x6e\\x4d\\x65\\x6e\\x75"`
   \   00000004   0400               MOVS     R4,R0
   \   00000006   ....               LDR      R0,??DataTable4  ;; ??IsMyBook
   \   00000008   8AB0               SUB      SP,SP,#+40
   \   0000000A   ........           _BLF     FindBook,??FindBook??rT
   \   0000000E   0500               MOVS     R5,R0
   \   00000010   A96C               LDR      R1,[R5, #+72]
   \   00000012   3800               MOVS     R0,R7
   \   00000014   091D               ADDS     R1,R1,#+4
   \   00000016   2830               ADDS     R0,R0,#+40
   \   00000018   ........           _BLF     ??StringRealloc,??StringRealloc??rT
     27            StringFree(Data);
   \   0000001C   3800               MOVS     R0,R7
   \   0000001E   2830               ADDS     R0,R0,#+40
   \   00000020   ........           _BLF     ??StringFree,??StringFree??rT
     28            mbk->Current->Type = TYPE_SHORTCUT;
   \   00000024   A86C               LDR      R0,[R5, #+72]
   \   00000026   0021               MOVS     R1,#+0
   \   00000028   0170               STRB     R1,[R0, #+0]
     29            
     30            void* ShortcutDesc;
     31          #ifdef A1
     32            ShortcutDesc = SHORTCUT_DESC_Init(mbk->Current->sData);
     33          #else
     34            ShortcutDesc = SHORTCUT_DESC_A2_Init(mbk->Current->sData);
   \   0000002A   A86C               LDR      R0,[R5, #+72]
   \   0000002C   4068               LDR      R0,[R0, #+4]
   \   0000002E   ........           _BLF     ??SHORTCUT_DESC_A2_Init,??SHORTCUT_DESC_A2_Init??rT
   \   00000032   0600               MOVS     R6,R0
     35          #endif
     36            mbk->Current->Icon = Shortcut_Get_MenuItemIconID(ShortcutDesc);
   \   00000034   ........           _BLF     Shortcut_Get_MenuItemIconID,??Shortcut_Get_MenuItemIconID??rT
   \   00000038   A96C               LDR      R1,[R5, #+72]
   \   0000003A   8881               STRH     R0,[R1, #+12]
     37            
     38            if (!mbk->Current->Caption)
   \   0000003C   A86C               LDR      R0,[R5, #+72]
   \   0000003E   8068               LDR      R0,[R0, #+8]
   \   00000040   0028               CMP      R0,#+0
   \   00000042   10D1               BNE      ??Menu_SetMainMenu_2
     39            {
     40              wchar_t Text[20] = L"MainMenu";
   \   00000044   6846               MOV      R0,SP
   \   00000046   2822               MOVS     R2,#+40
   \                     ??Menu_SetMainMenu_3:
   \   00000048   121F               SUBS     R2,R2,#+4
   \   0000004A   B958               LDR      R1,[R7, R2]
   \   0000004C   8150               STR      R1,[R0, R2]
   \   0000004E   FBD1               BNE      ??Menu_SetMainMenu_3
     41              mbk->Current->Caption = StringAlloc(StringLength(Text));
   \   00000050   ........           _BLF     ??StringLength,??StringLength??rT
   \   00000054   ........           _BLF     ??StringAlloc,??StringAlloc??rT
   \   00000058   A96C               LDR      R1,[R5, #+72]
   \   0000005A   8860               STR      R0,[R1, #+8]
     42              wstrcpy(mbk->Current->Caption, Text);
   \   0000005C   A86C               LDR      R0,[R5, #+72]
   \   0000005E   6946               MOV      R1,SP
   \   00000060   8068               LDR      R0,[R0, #+8]
   \   00000062   ........           _BLF     wstrcpy,??wstrcpy??rT
     43            }
     44            mfree(ShortcutDesc);
   \                     ??Menu_SetMainMenu_2:
   \   00000066   3000               MOVS     R0,R6
   \   00000068   ........           _BLF     ??mfree,??mfree??rT
     45            FreeBook(MainMenu);
   \   0000006C   2000               MOVS     R0,R4
   \   0000006E   ........           _BLF     FreeBook,??FreeBook??rT
     46            AcceptShortcut(mbk);
   \   00000072   2800               MOVS     R0,R5
   \   00000074   ........           BL       ??AcceptShortcut
     47          }
   \   00000078   0AB0               ADD      SP,SP,#+40
   \   0000007A   F0BD               POP      {R4-R7,PC}       ;; return
   \                     ??Menu_SetMainMenu_1:
   \   0000007C   ........           DC32     `?<Constant L"\\x4d\\x61\\x69\\x6e\\x4d\\x65\\x6e\\x75"`
     48          

   \                                 In segment CODE, align 4, keep-with-next
     49          void Menu_SetShortcut(BOOK* MainMenu, GUI* gui)
     50          {
   \                     ??Menu_SetShortcut:
   \   00000000   70B5               PUSH     {R4-R6,LR}
   \   00000002   0400               MOVS     R4,R0
     51            GotoShortcut_Book* mbk = (GotoShortcut_Book*)FindBook(IsMyBook);
   \   00000004   ....               LDR      R0,??DataTable4  ;; ??IsMyBook
   \   00000006   A0B0               SUB      SP,SP,#+128
   \   00000008   ........           _BLF     FindBook,??FindBook??rT
   \   0000000C   0500               MOVS     R5,R0
     52            wchar_t* Data = MenuBook_Desktop_GetSelectedItemID(MainMenu);
   \   0000000E   2000               MOVS     R0,R4
   \   00000010   ........           _BLF     MenuBook_Desktop_GetSelectedItemID,??MenuBook_Desktop_GetSelectedItemID??rT
     53            StringRealloc(Data, &mbk->Current->sData);
   \   00000014   A96C               LDR      R1,[R5, #+72]
   \   00000016   0600               MOVS     R6,R0
   \   00000018   091D               ADDS     R1,R1,#+4
   \   0000001A   ........           _BLF     ??StringRealloc,??StringRealloc??rT
     54            StringFree(Data);
   \   0000001E   3000               MOVS     R0,R6
   \   00000020   ........           _BLF     ??StringFree,??StringFree??rT
     55            
     56            mbk->Current->Type = TYPE_SHORTCUT;
   \   00000024   A86C               LDR      R0,[R5, #+72]
   \   00000026   0021               MOVS     R1,#+0
   \   00000028   0170               STRB     R1,[R0, #+0]
     57            
     58            void* ShortcutDesc;
     59          #ifdef A1
     60            ShortcutDesc = SHORTCUT_DESC_Init(mbk->Current->sData);
     61          #elif A2
     62            ShortcutDesc = SHORTCUT_DESC_A2_Init(mbk->Current->sData);
   \   0000002A   A86C               LDR      R0,[R5, #+72]
   \   0000002C   4068               LDR      R0,[R0, #+4]
   \   0000002E   ........           _BLF     ??SHORTCUT_DESC_A2_Init,??SHORTCUT_DESC_A2_Init??rT
   \   00000032   0600               MOVS     R6,R0
     63          #endif
     64            
     65            mbk->Current->Icon = Shortcut_Get_MenuItemIconID(ShortcutDesc);
   \   00000034   ........           _BLF     Shortcut_Get_MenuItemIconID,??Shortcut_Get_MenuItemIconID??rT
   \   00000038   A96C               LDR      R1,[R5, #+72]
   \   0000003A   8881               STRH     R0,[R1, #+12]
     66            if (!mbk->Current->Caption)
   \   0000003C   A86C               LDR      R0,[R5, #+72]
   \   0000003E   8068               LDR      R0,[R0, #+8]
   \   00000040   0028               CMP      R0,#+0
   \   00000042   12D1               BNE      ??Menu_SetShortcut_1
     67            {
     68              wchar_t text[64];
     69              TextID_GetWString(Shortcut_Get_MenuItemName(ShortcutDesc), text, MAXELEMS(text));
   \   00000044   3000               MOVS     R0,R6
   \   00000046   ........           _BLF     Shortcut_Get_MenuItemName,??Shortcut_Get_MenuItemName??rT
   \   0000004A   4022               MOVS     R2,#+64
   \   0000004C   6946               MOV      R1,SP
   \   0000004E   ........           _BLF     TextID_GetWString,??TextID_GetWString??rT
     70              mbk->Current->Caption = StringAlloc(StringLength(text));
   \   00000052   6846               MOV      R0,SP
   \   00000054   ........           _BLF     ??StringLength,??StringLength??rT
   \   00000058   ........           _BLF     ??StringAlloc,??StringAlloc??rT
   \   0000005C   A96C               LDR      R1,[R5, #+72]
   \   0000005E   8860               STR      R0,[R1, #+8]
     71              wstrcpy(mbk->Current->Caption, text);
   \   00000060   A86C               LDR      R0,[R5, #+72]
   \   00000062   6946               MOV      R1,SP
   \   00000064   8068               LDR      R0,[R0, #+8]
   \   00000066   ........           _BLF     wstrcpy,??wstrcpy??rT
     72            }
     73            mfree(ShortcutDesc);
   \                     ??Menu_SetShortcut_1:
   \   0000006A   3000               MOVS     R0,R6
   \   0000006C   ........           _BLF     ??mfree,??mfree??rT
     74            FreeBook(MainMenu);
   \   00000070   2000               MOVS     R0,R4
   \   00000072   ........           _BLF     FreeBook,??FreeBook??rT
     75            AcceptShortcut(mbk);
   \   00000076   2800               MOVS     R0,R5
   \   00000078   ........           BL       ??AcceptShortcut
     76          }
   \   0000007C   20B0               ADD      SP,SP,#+128
   \   0000007E   70BD               POP      {R4-R6,PC}       ;; return
     77          

   \                                 In segment CODE, align 4, keep-with-next
     78          int Cancel_MainMenu_DB(void* data, BOOK* book)
     79          {
   \                     ??Cancel_MainMenu_DB:
   \   00000000   00B5               PUSH     {LR}
   \   00000002   0800               MOVS     R0,R1
     80            BookObj_ReturnPage(book, NIL_EVENT);
   \   00000004   0021               MOVS     R1,#+0
   \   00000006   ........           _BLF     BookObj_ReturnPage,??BookObj_ReturnPage??rT
     81            return(1);
   \   0000000A   0120               MOVS     R0,#+1
   \   0000000C   00BD               POP      {PC}             ;; return
     82          }
     83          

   \                                 In segment CODE, align 4, keep-with-next
     84          int CreateMainMenu(void* data, BOOK* book)
     85          {
   \                     ??CreateMainMenu:
   \   00000000   10B5               PUSH     {R4,LR}
   \   00000002   0800               MOVS     R0,R1
     86            BOOK* MainMenu = MenuBook_Desktop(1, BookObj_GetBookID(book));
   \   00000004   ........           _BLF     BookObj_GetBookID,??BookObj_GetBookID??rT
   \   00000008   0100               MOVS     R1,R0
   \   0000000A   0120               MOVS     R0,#+1
   \   0000000C   ........           _BLF     MenuBook_Desktop,??MenuBook_Desktop??rT
   \   00000010   0400               MOVS     R4,R0
     87            if (MainMenu)
   \   00000012   14D0               BEQ      ??CreateMainMenu_1
     88            {
     89              BookObj_SoftKeys_SetAction(MainMenu, 0x0, Menu_SetShortcut);
   \   00000014   0B4A               LDR      R2,??CreateMainMenu_2  ;; ??Menu_SetShortcut
   \   00000016   0021               MOVS     R1,#+0
   \   00000018   ........           _BLF     BookObj_SoftKeys_SetAction,??BookObj_SoftKeys_SetAction??rT
     90              BookObj_SoftKeys_SetText(MainMenu, 0x0, SHC_SET_SHORTCUT_SK);
   \   0000001C   0A4A               LDR      R2,??CreateMainMenu_2+0x4  ;; 0xb5c
   \   0000001E   0021               MOVS     R1,#+0
   \   00000020   2000               MOVS     R0,R4
   \   00000022   ........           _BLF     BookObj_SoftKeys_SetText,??BookObj_SoftKeys_SetText??rT
     91              
     92              BookObj_SoftKeys_SetAction(MainMenu, 0x1, Menu_SetMainMenu);
   \   00000026   094A               LDR      R2,??CreateMainMenu_2+0x8  ;; ??Menu_SetMainMenu
   \   00000028   0121               MOVS     R1,#+1
   \   0000002A   2000               MOVS     R0,R4
   \   0000002C   ........           _BLF     BookObj_SoftKeys_SetAction,??BookObj_SoftKeys_SetAction??rT
     93              BookObj_SoftKeys_SetText(MainMenu, 0x1, SHC_SET_MM);
   \   00000030   074A               LDR      R2,??CreateMainMenu_2+0xC  ;; 0x1c5c
   \   00000032   0121               MOVS     R1,#+1
   \   00000034   2000               MOVS     R0,R4
   \   00000036   ........           _BLF     BookObj_SoftKeys_SetText,??BookObj_SoftKeys_SetText??rT
     94          
     95              return TRUE;
   \   0000003A   0120               MOVS     R0,#+1
   \   0000003C   10BD               POP      {R4,PC}
     96            }
     97            return FALSE;
   \                     ??CreateMainMenu_1:
   \   0000003E   0020               MOVS     R0,#+0
   \   00000040   10BD               POP      {R4,PC}          ;; return
   \   00000042   C046               Nop      
   \                     ??CreateMainMenu_2:
   \   00000044   ........           DC32     ??Menu_SetShortcut
   \   00000048   5C0B0000           DC32     0xb5c
   \   0000004C   ........           DC32     ??Menu_SetMainMenu
   \   00000050   5C1C0000           DC32     0x1c5c
     98          }
     99          

   \                                 In segment DATA_C, align 4, align-sorted
    100          const PAGE_MSG Goto_Editor_MainMenu_PageEvents[] = 
   \                     Goto_Editor_MainMenu_PageEvents:
   \   00000000   0F000000....       DC32 15, ??CreateMainMenu, 3, ??Cancel_MainMenu_DB, 4
   \              ....03000000
   \              ........0400
   \              0000        
   \   00000014   ........0000       DC32 ??Cancel_MainMenu_DB, 0, 0H
   \              000000000000
    101          {
    102            PAGE_ENTER_EVENT, CreateMainMenu,
    103            PREVIOUS_EVENT,   Cancel_MainMenu_DB,
    104            CANCEL_EVENT,     Cancel_MainMenu_DB,
    105            NIL_EVENT,        NULL
    106          };
    107          const PAGE_DESC Goto_Editor_MainMenu_PageDesc = {EDITOR_MAINMENU_BASEPAGE_NAME, 0, Goto_Editor_MainMenu_PageEvents};
    108          
    109          //------------------------------------------------------------------------------
    110          

   \                                 In segment CODE, align 4, keep-with-next
    111          int JavaMenu_Callback(GUI_MESSAGE* msg)
    112          {
   \                     ??JavaMenu_Callback:
   \   00000000   30B5               PUSH     {R4,R5,LR}
   \   00000002   0400               MOVS     R4,R0
    113            switch(GUIonMessage_GetMsg(msg))
   \   00000004   ........           _BLF     GUIonMessage_GetMsg,??GUIonMessage_GetMsg??rT
   \   00000008   0128               CMP      R0,#+1
   \   0000000A   19D1               BNE      ??JavaMenu_Callback_1
    114            {
    115            case LISTMSG_GetItem:
    116              GotoShortcut_Book* mbk = (GotoShortcut_Book*)GUIonMessage_GetBook(msg);
   \   0000000C   2000               MOVS     R0,R4
   \   0000000E   ........           _BLF     GUIonMessage_GetBook,??GUIonMessage_GetBook??rT
   \   00000012   0500               MOVS     R5,R0
    117              JAVA_LIST_ELEM* elem = (JAVA_LIST_ELEM*)List_Get(mbk->JavaList, GUIonMessage_GetCreatedItemIndex(msg));
   \   00000014   2000               MOVS     R0,R4
   \   00000016   ........           _BLF     GUIonMessage_GetCreatedItemIndex,??GUIonMessage_GetCreatedItemIndex??rT
   \   0000001A   0100               MOVS     R1,R0
   \   0000001C   286C               LDR      R0,[R5, #+64]
   \   0000001E   ........           _BLF     List_Get,??List_Get??rT
   \   00000022   0500               MOVS     R5,R0
    118              GUIonMessage_SetMenuItemText(msg, TextID_Get(elem->Name));
   \   00000024   2868               LDR      R0,[R5, #+0]
   \   00000026   FF22               MOVS     R2,#+255
   \   00000028   0021               MOVS     R1,#+0
   \   0000002A   ........           _BLF     TextID_Create,??TextID_Create??rT
   \   0000002E   0100               MOVS     R1,R0
   \   00000030   2000               MOVS     R0,R4
   \   00000032   ........           _BLF     GUIonMessage_SetMenuItemText,??GUIonMessage_SetMenuItemText??rT
    119              GUIonMessage_SetMenuItemIcon(msg, 0, elem->ImageID);
   \   00000036   2A89               LDRH     R2,[R5, #+8]
   \   00000038   0021               MOVS     R1,#+0
   \   0000003A   2000               MOVS     R0,R4
   \   0000003C   ........           _BLF     GUIonMessage_SetMenuItemIcon,??GUIonMessage_SetMenuItemIcon??rT
    120            }
    121            return 1;
   \                     ??JavaMenu_Callback_1:
   \   00000040   0120               MOVS     R0,#+1
   \   00000042   30BD               POP      {R4,R5,PC}       ;; return
    122          }
    123          

   \                                 In segment CODE, align 4, keep-with-next
    124          void JavaMenu_Ok(BOOK* book, GUI* gui)
    125          {
   \                     ??JavaMenu_Ok:
   \   00000000   30B5               PUSH     {R4,R5,LR}
   \   00000002   0400               MOVS     R4,R0
    126            GotoShortcut_Book* mbk = (GotoShortcut_Book*)book;
    127            JAVA_LIST_ELEM* Elem = (JAVA_LIST_ELEM*)List_Get(mbk->JavaList, ListMenu_GetSelectedItem(mbk->JavaMenu));
   \   00000004   206A               LDR      R0,[R4, #+32]
   \   00000006   ........           _BLF     ListMenu_GetSelectedItem,??ListMenu_GetSelectedItem??rT
   \   0000000A   0100               MOVS     R1,R0
   \   0000000C   206C               LDR      R0,[R4, #+64]
   \   0000000E   ........           _BLF     List_Get,??List_Get??rT
    128            
    129            StringRealloc(Elem->Name, &mbk->Current->sData);
   \   00000012   A16C               LDR      R1,[R4, #+72]
   \   00000014   0500               MOVS     R5,R0
   \   00000016   2868               LDR      R0,[R5, #+0]
   \   00000018   091D               ADDS     R1,R1,#+4
   \   0000001A   ........           _BLF     ??StringRealloc,??StringRealloc??rT
    130            mbk->Current->Icon = DB_LIST_JAVA_ICN;
   \   0000001E   A06C               LDR      R0,[R4, #+72]
   \   00000020   0749               LDR      R1,??JavaMenu_Ok_1  ;; 0xf875
   \   00000022   8181               STRH     R1,[R0, #+12]
    131            mbk->Current->Type = TYPE_JAVA;
   \   00000024   A06C               LDR      R0,[R4, #+72]
   \   00000026   0121               MOVS     R1,#+1
   \   00000028   0170               STRB     R1,[R0, #+0]
    132            
    133            if (!mbk->Current->Caption)
   \   0000002A   A06C               LDR      R0,[R4, #+72]
   \   0000002C   8068               LDR      R0,[R0, #+8]
   \   0000002E   0028               CMP      R0,#+0
   \   00000030   04D1               BNE      ??JavaMenu_Ok_2
    134              StringRealloc(Elem->Name, &mbk->Current->Caption);
   \   00000032   A16C               LDR      R1,[R4, #+72]
   \   00000034   2868               LDR      R0,[R5, #+0]
   \   00000036   0831               ADDS     R1,R1,#+8
   \   00000038   ........           _BLF     ??StringRealloc,??StringRealloc??rT
    135            
    136            AcceptShortcut(mbk);
   \                     ??JavaMenu_Ok_2:
   \   0000003C   ....               B.N      ?Subroutine41
   \   0000003E   C046               Nop      
   \                     ??JavaMenu_Ok_1:
   \   00000040   75F80000           DC32     0xf875
    137          }

   \                                 In segment CODE, align 4, keep-with-next
   \                     ?Subroutine41:
   \   00000000   2000               MOVS     R0,R4
   \   00000002   ........           BL       ??AcceptShortcut
   \   00000006   30BD               POP      {R4,R5,PC}       ;; return
    138          
    139          /*
    140          void JavaMenu_Back(BOOK* book, GUI* gui)
    141          {
    142            BookObj_ReturnPage(mbk, NIL_EVENT);
    143          }
    144          */
    145          

   \                                 In segment CODE, align 4, keep-with-next
    146          int CreateJavaList(void* data, BOOK* book)
    147          {
   \                     ??CreateJavaList:
   \   00000000   10B5               PUSH     {R4,LR}
   \   00000002   0C00               MOVS     R4,R1
    148            GotoShortcut_Book* mbk = (GotoShortcut_Book*)book;   
    149            FREE_GUI(mbk->JavaMenu);
   \   00000004   206A               LDR      R0,[R4, #+32]
   \   00000006   0028               CMP      R0,#+0
   \   00000008   03D0               BEQ      ??CreateJavaList_1
   \   0000000A   ........           _BLF     GUIObject_Destroy,??GUIObject_Destroy??rT
   \   0000000E   0020               MOVS     R0,#+0
   \   00000010   2062               STR      R0,[R4, #+32]
    150            
    151            mbk->JavaList = Create_JavaList();
   \                     ??CreateJavaList_1:
   \   00000012   ........           _BLF     ??Create_JavaList,??Create_JavaList??rT
   \   00000016   2064               STR      R0,[R4, #+64]
    152            mbk->JavaMenu = CreateListMenu(mbk, UIDisplay_Main);
   \   00000018   0021               MOVS     R1,#+0
   \   0000001A   2000               MOVS     R0,R4
   \   0000001C   ........           _BLF     CreateListMenu,??CreateListMenu??rT
   \   00000020   2062               STR      R0,[R4, #+32]
    153            
    154            GUIObject_SetTitleText(mbk->JavaMenu, JAVA_APP_TXT);
   \   00000022   BB21               MOVS     R1,#+187
   \   00000024   C900               LSLS     R1,R1,#+3
   \   00000026   ........           _BLF     GUIObject_SetTitleText,??GUIObject_SetTitleText??rT
    155            ListMenu_SetItemCount(mbk->JavaMenu, List_GetCount(mbk->JavaList));
   \   0000002A   206C               LDR      R0,[R4, #+64]
   \   0000002C   ........           _BLF     List_GetCount,??List_GetCount??rT
   \   00000030   0100               MOVS     R1,R0
   \   00000032   206A               LDR      R0,[R4, #+32]
   \   00000034   ........           _BLF     ListMenu_SetItemCount,??ListMenu_SetItemCount??rT
    156            ListMenu_SetOnMessage(mbk->JavaMenu, JavaMenu_Callback);
   \   00000038   0A49               LDR      R1,??CreateJavaList_2  ;; ??JavaMenu_Callback
   \   0000003A   206A               LDR      R0,[R4, #+32]
   \   0000003C   ........           _BLF     ListMenu_SetOnMessage,??ListMenu_SetOnMessage??rT
    157            ListMenu_SetCursorToItem(mbk->JavaMenu, 0);
   \   00000040   206A               LDR      R0,[R4, #+32]
   \   00000042   0021               MOVS     R1,#+0
   \   00000044   ........           _BLF     ListMenu_SetCursorToItem,??ListMenu_SetCursorToItem??rT
    158            GUIObject_SoftKeys_SetAction(mbk->JavaMenu, ACTION_BACK, Action_Back);
   \   00000048   ....               LDR      R2,??DataTable2  ;; ??Action_Back
   \   0000004A   206A               LDR      R0,[R4, #+32]
   \   0000004C   FC21               MOVS     R1,#+252
   \   0000004E   0901               LSLS     R1,R1,#+4
   \   00000050   ........           _BLF     GUIObject_SoftKeys_SetAction,??GUIObject_SoftKeys_SetAction??rT
    159            GUIObject_SoftKeys_SetAction(mbk->JavaMenu, ACTION_SELECT1, JavaMenu_Ok);
   \   00000054   044A               LDR      R2,??CreateJavaList_2+0x4  ;; ??JavaMenu_Ok
   \   00000056   ....               LDR      R1,??DataTable3  ;; 0xfc2
   \   00000058   206A               LDR      R0,[R4, #+32]
   \   0000005A   ........           _BLF     GUIObject_SoftKeys_SetAction,??GUIObject_SoftKeys_SetAction??rT
    160            GUIObject_Show(mbk->JavaMenu);
   \   0000005E   206A               LDR      R0,[R4, #+32]
   \   00000060   ....               B.N      ?Subroutine38
   \   00000062   C046               Nop      
   \                     ??CreateJavaList_2:
   \   00000064   ........           DC32     ??JavaMenu_Callback
   \   00000068   ........           DC32     ??JavaMenu_Ok
    161            return 0;
    162          }

   \                                 In segment CODE, align 4, keep-with-next
   \                     ?Subroutine38:
   \   00000000   ........           _BLF     GUIObject_Show,??GUIObject_Show??rT
   \   00000004   0020               MOVS     R0,#+0
   \   00000006   10BD               POP      {R4,PC}          ;; return
   \                     ??Subroutine38_0:
   \   00000008   ........           DC32     ??OnOkEventInput
   \   0000000C   ........           DC32     ??OnBackEventInput
   \   00000010   3D100000           DC32     0x103d
    163          

   \                                 In segment CODE, align 4, keep-with-next
    164          int CloseJavaList(void* data, BOOK* book)
    165          {
   \                     ??CloseJavaList:
   \   00000000   10B5               PUSH     {R4,LR}
   \   00000002   0C00               MOVS     R4,R1
    166            GotoShortcut_Book* mbk = (GotoShortcut_Book*)book;
    167            FREE_JAVAGUI(mbk->JavaMenu, mbk->JavaList, JavaFree);
   \   00000004   0649               LDR      R1,??CloseJavaList_1  ;; ??JavaFree
   \   00000006   2000               MOVS     R0,R4
   \   00000008   4030               ADDS     R0,R0,#+64
   \   0000000A   ........           _BLF     ??FreeList,??FreeList??rT
   \   0000000E   206A               LDR      R0,[R4, #+32]
   \   00000010   0028               CMP      R0,#+0
   \   00000012   03D0               BEQ      ??CloseJavaList_2
   \   00000014   ........           _BLF     GUIObject_Destroy,??GUIObject_Destroy??rT
   \   00000018   0020               MOVS     R0,#+0
   \   0000001A   2062               STR      R0,[R4, #+32]
    168            return 0;
   \                     ??CloseJavaList_2:
   \   0000001C   0020               MOVS     R0,#+0
   \   0000001E   10BD               POP      {R4,PC}          ;; return
   \                     ??CloseJavaList_1:
   \   00000020   ........           DC32     ??JavaFree
    169          }
    170          
    171          const PAGE_MSG Goto_Editor_JavaList_PageEvents[] = 
    172          {
    173            PAGE_ENTER_EVENT,   CreateJavaList,
    174            PAGE_EXIT_EVENT,    CloseJavaList,
    175            NIL_EVENT, NULL
    176          };
    177          const PAGE_DESC Goto_Editor_JavaList_PageDesc = {EDITOR_JAVALIST_BASEPAGE_NAME, 0, Goto_Editor_JavaList_PageEvents};
    178          
    179          //------------------------------------------------------------------------------
    180          

   \                                 In segment CODE, align 4, keep-with-next
    181          int Select_DB(void* data, BOOK* book)
    182          {
   \                     ??Select_DB:
   \   00000000   70B5               PUSH     {R4-R6,LR}
   \   00000002   0500               MOVS     R5,R0
    183            GotoShortcut_Book* mbk = (GotoShortcut_Book*)FindBook(IsMyBook);
   \   00000004   ....               LDR      R0,??DataTable4  ;; ??IsMyBook
   \   00000006   ........           _BLF     FindBook,??FindBook??rT
   \   0000000A   0400               MOVS     R4,R0
    184            FILEITEM* file_item = (FILEITEM*)data;
    185            
    186            mbk->Current->sData = FSX_MakeFullPath(FILEITEM_GetPath(file_item), FILEITEM_GetFname(file_item)); 
   \   0000000C   2800               MOVS     R0,R5
   \   0000000E   ........           _BLF     FILEITEM_GetFname,??FILEITEM_GetFname??rT
   \   00000012   0600               MOVS     R6,R0
   \   00000014   2800               MOVS     R0,R5
   \   00000016   ........           _BLF     FILEITEM_GetPath,??FILEITEM_GetPath??rT
   \   0000001A   3100               MOVS     R1,R6
   \   0000001C   ........           _BLF     FSX_MakeFullPath,??FSX_MakeFullPath??rT
   \   00000020   A16C               LDR      R1,[R4, #+72]
   \   00000022   4860               STR      R0,[R1, #+4]
    187            mbk->Current->Icon = TypesIcons[TYPE_ELF];
   \   00000024   A06C               LDR      R0,[R4, #+72]
   \   00000026   0A49               LDR      R1,??Select_DB_1  ;; 0x807
   \   00000028   8181               STRH     R1,[R0, #+12]
    188            mbk->Current->Type = TYPE_ELF;
   \   0000002A   A06C               LDR      R0,[R4, #+72]
   \   0000002C   0221               MOVS     R1,#+2
   \   0000002E   0170               STRB     R1,[R0, #+0]
    189          
    190            if(!mbk->Current->Caption)
   \   00000030   A06C               LDR      R0,[R4, #+72]
   \   00000032   8068               LDR      R0,[R0, #+8]
   \   00000034   0028               CMP      R0,#+0
   \   00000036   06D1               BNE      ??Select_DB_2
    191              StringRealloc(FILEITEM_GetFname(file_item), &mbk->Current->Caption);
   \   00000038   2800               MOVS     R0,R5
   \   0000003A   ........           _BLF     FILEITEM_GetFname,??FILEITEM_GetFname??rT
   \   0000003E   A16C               LDR      R1,[R4, #+72]
   \   00000040   0831               ADDS     R1,R1,#+8
   \   00000042   ........           _BLF     ??StringRealloc,??StringRealloc??rT
    192          
    193            AcceptShortcut(mbk);
   \                     ??Select_DB_2:
   \   00000046   2000               MOVS     R0,R4
   \   00000048   ........           BL       ??AcceptShortcut
    194            return 0;
   \   0000004C   0020               MOVS     R0,#+0
   \   0000004E   70BD               POP      {R4-R6,PC}       ;; return
   \                     ??Select_DB_1:
   \   00000050   07080000           DC32     0x807
    195          }
    196          

   \                                 In segment CODE, align 4, keep-with-next
    197          int DB_Filter(const wchar_t *ExtTable, const wchar_t* fpath, const wchar_t* fname)
    198          {
   \                     ??DB_Filter:
   \   00000000   30B5               PUSH     {R4,R5,LR}
   \   00000002   87B0               SUB      SP,SP,#+28
   \   00000004   0C00               MOVS     R4,R1
   \   00000006   1500               MOVS     R5,R2
    199            FSTAT fs;
    200            if (DataBrowser_isFileInListExt(ExtTable, fpath, fname))
   \   00000008   ........           _BLF     DataBrowser_isFileInListExt,??DataBrowser_isFileInListExt??rT
   \   0000000C   0028               CMP      R0,#+0
   \   0000000E   01D0               BEQ      ??DB_Filter_1
    201              return 1;
   \   00000010   0120               MOVS     R0,#+1
   \   00000012   08E0               B        ??DB_Filter_2
    202            
    203            fstat(fpath, fname, &fs);
   \                     ??DB_Filter_1:
   \   00000014   6A46               MOV      R2,SP
   \   00000016   2900               MOVS     R1,R5
   \   00000018   2000               MOVS     R0,R4
   \   0000001A   ........           _BLF     fstat,??fstat??rT
    204            return 0 != (fs.st_mode&FSX_S_IFDIR);
   \   0000001E   0198               LDR      R0,[SP, #+4]
   \   00000020   0114               ASRS     R1,R0,#+16
   \   00000022   0120               MOVS     R0,#+1
   \   00000024   0840               ANDS     R0,R0,R1
   \                     ??DB_Filter_2:
   \   00000026   07B0               ADD      SP,SP,#+28
   \   00000028   30BD               POP      {R4,R5,PC}       ;; return
    205          }
    206          

   \                                 In segment CODE, align 4, keep-with-next
    207          int CreateDataBrowser(void* data, BOOK* book)
    208          {
   \                     ??CreateDataBrowser:
   \   00000000   77B5               PUSH     {R0-R2,R4-R6,LR}
    209            void* DB_Desc = DataBrowserDesc_Create();
    210            const wchar_t *Folders[3];
    211            Folders[0] = L"/usb/other/ZBin";
   \   00000002   1C4E               LDR      R6,??CreateDataBrowser_1  ;; `?<Constant L"\\x2f\\x75\\x73\\x62\\x2f\\x6f\\x74\\x68\\`
   \   00000004   0C00               MOVS     R4,R1
   \   00000006   ........           _BLF     DataBrowserDesc_Create,??DataBrowserDesc_Create??rT
   \   0000000A   0500               MOVS     R5,R0
   \   0000000C   0096               STR      R6,[SP, #+0]
    212            Folders[1] = L"/card/other/ZBin";
   \   0000000E   3000               MOVS     R0,R6
   \   00000010   2030               ADDS     R0,R0,#+32
   \   00000012   0190               STR      R0,[SP, #+4]
    213            Folders[2] = NULL;
   \   00000014   0020               MOVS     R0,#+0
   \   00000016   0290               STR      R0,[SP, #+8]
    214            DataBrowserDesc_SetHeaderText(DB_Desc, TextID_Get(L"ELFs"));  
   \   00000018   FF22               MOVS     R2,#+255
   \   0000001A   0021               MOVS     R1,#+0
   \   0000001C   3000               MOVS     R0,R6
   \   0000001E   4430               ADDS     R0,R0,#+68
   \   00000020   ........           _BLF     TextID_Create,??TextID_Create??rT
   \   00000024   0100               MOVS     R1,R0
   \   00000026   2800               MOVS     R0,R5
   \   00000028   ........           _BLF     DataBrowserDesc_SetHeaderText,??DataBrowserDesc_SetHeaderText??rT
    215            DataBrowserDesc_SetBookID(DB_Desc, BookObj_GetBookID(book));
   \   0000002C   2000               MOVS     R0,R4
   \   0000002E   ........           _BLF     BookObj_GetBookID,??BookObj_GetBookID??rT
   \   00000032   0100               MOVS     R1,R0
   \   00000034   2800               MOVS     R0,R5
   \   00000036   ........           _BLF     DataBrowserDesc_SetBookID,??DataBrowserDesc_SetBookID??rT
    216            DataBrowserDesc_SetFolders(DB_Desc, Folders);
   \   0000003A   6946               MOV      R1,SP
   \   0000003C   2800               MOVS     R0,R5
   \   0000003E   ........           _BLF     DataBrowserDesc_SetFolders,??DataBrowserDesc_SetFolders??rT
    217            DataBrowserDesc_SetFileExtList(DB_Desc, L"*.elf");
   \   00000042   5036               ADDS     R6,R6,#+80
   \   00000044   3100               MOVS     R1,R6
   \   00000046   2800               MOVS     R0,R5
   \   00000048   ........           _BLF     DataBrowserDesc_SetFileExtList,??DataBrowserDesc_SetFileExtList??rT
    218            DataBrowserDesc_SetItemFilter(DB_Desc, DB_Filter);
   \   0000004C   0A49               LDR      R1,??CreateDataBrowser_1+0x4  ;; ??DB_Filter
   \   0000004E   2800               MOVS     R0,R5
   \   00000050   ........           _BLF     DataBrowserDesc_SetItemFilter,??DataBrowserDesc_SetItemFilter??rT
    219            DataBrowserDesc_SetFoldersNumber(DB_Desc, 2);
   \   00000054   0221               MOVS     R1,#+2
   \   00000056   2800               MOVS     R0,R5
   \   00000058   ........           _BLF     DataBrowserDesc_SetFoldersNumber,??DataBrowserDesc_SetFoldersNumber??rT
    220            DataBrowserDesc_SetSelectAction(DB_Desc, 1);
   \   0000005C   0121               MOVS     R1,#+1
   \   0000005E   2800               MOVS     R0,R5
   \   00000060   ........           _BLF     DataBrowserDesc_SetSelectAction,??DataBrowserDesc_SetSelectAction??rT
    221            DataBrowser_Create(DB_Desc);
   \   00000064   2800               MOVS     R0,R5
   \   00000066   ........           _BLF     DataBrowser_Create,??DataBrowser_Create??rT
    222            DataBrowserDesc_Destroy(DB_Desc);
   \   0000006A   2800               MOVS     R0,R5
   \   0000006C   ........           _BLF     DataBrowserDesc_Destroy,??DataBrowserDesc_Destroy??rT
    223            return 0;
   \   00000070   0020               MOVS     R0,#+0
   \   00000072   7EBD               POP      {R1-R6,PC}       ;; return
   \                     ??CreateDataBrowser_1:
   \   00000074   ........           DC32     `?<Constant L"\\x2f\\x75\\x73\\x62\\x2f\\x6f\\x74\\x68\\`
   \   00000078   ........           DC32     ??DB_Filter
    224          }
    225          
    226          const PAGE_MSG Goto_Editor_DataBrowser_PageEvents[] = 
    227          {
    228            PAGE_ENTER_EVENT, CreateDataBrowser,
    229            ACCEPT_EVENT,     Select_DB,
    230            PREVIOUS_EVENT,   Cancel_MainMenu_DB,
    231            CANCEL_EVENT,     Cancel_MainMenu_DB,
    232            NIL_EVENT,        NULL
    233          };
    234          const PAGE_DESC Goto_Editor_DataBrowser_PageDesc = {EDITOR_DATABROWSER_BASEPAGE_NAME, 0, Goto_Editor_DataBrowser_PageEvents};
    235          
    236          //------------------------------------------------------------------------------
    237          

   \                                 In segment CODE, align 4, keep-with-next
    238          void OnOkEventInput(BOOK* book, wchar_t *string, int len)
    239          {
   \                     ??OnOkEventInput:
   \   00000000   70B5               PUSH     {R4-R6,LR}
   \   00000002   0400               MOVS     R4,R0
   \   00000004   0D00               MOVS     R5,R1
   \   00000006   1600               MOVS     R6,R2
    240            GotoShortcut_Book* mbk = (GotoShortcut_Book*)book;
    241          
    242            if (len > 0)
   \   00000008   012E               CMP      R6,#+1
   \   0000000A   17DB               BLT      ??OnOkEventInput_1
    243            {
    244              StringRealloc(string, &mbk->Current->sData);
   \   0000000C   A16C               LDR      R1,[R4, #+72]
   \   0000000E   2800               MOVS     R0,R5
   \   00000010   091D               ADDS     R1,R1,#+4
   \   00000012   ........           _BLF     ??StringRealloc,??StringRealloc??rT
    245              mbk->Current->Icon = TypesIcons[TYPE_EVENT];
   \   00000016   A06C               LDR      R0,[R4, #+72]
   \   00000018   0A49               LDR      R1,??OnOkEventInput_2  ;; 0xf8a6
   \   0000001A   8181               STRH     R1,[R0, #+12]
    246              mbk->Current->Type = TYPE_EVENT;
   \   0000001C   A06C               LDR      R0,[R4, #+72]
   \   0000001E   0321               MOVS     R1,#+3
   \   00000020   0170               STRB     R1,[R0, #+0]
    247              
    248              int event = wstr2h(string,len);
   \   00000022   3100               MOVS     R1,R6
   \   00000024   2800               MOVS     R0,R5
   \   00000026   ........           _BLF     ??wstr2h,??wstr2h??rT
    249              
    250              //wchar_t *EventName = StringAlloc(len); 
    251              //str2wstr(EventName,UIEventName(event));
    252              
    253              if(!mbk->Current->Caption)
   \   0000002A   A06C               LDR      R0,[R4, #+72]
   \   0000002C   8068               LDR      R0,[R0, #+8]
   \   0000002E   0028               CMP      R0,#+0
   \   00000030   04D1               BNE      ??OnOkEventInput_1
    254                StringRealloc(string, &mbk->Current->Caption);
   \   00000032   A16C               LDR      R1,[R4, #+72]
   \   00000034   2800               MOVS     R0,R5
   \   00000036   0831               ADDS     R1,R1,#+8
   \   00000038   ........           _BLF     ??StringRealloc,??StringRealloc??rT
    255              
    256              //StringFree(EventName);
    257            }
    258            AcceptShortcut(mbk);
   \                     ??OnOkEventInput_1:
   \   0000003C   2000               MOVS     R0,R4
   \   0000003E   ........           BL       ??AcceptShortcut
    259          }
   \   00000042   70BD               POP      {R4-R6,PC}       ;; return
   \                     ??OnOkEventInput_2:
   \   00000044   A6F80000           DC32     0xf8a6
    260          

   \                                 In segment CODE, align 4, keep-with-next
    261          void OnBackEventInput(BOOK* book, wchar_t* string, int len)
    262          {
   \                     ??OnBackEventInput:
   \   00000000   10B5               PUSH     {R4,LR}
   \   00000002   0400               MOVS     R4,R0
    263            GotoShortcut_Book* mbk = (GotoShortcut_Book*)book;
    264            FREE_GUI(mbk->EventInput);
   \   00000004   206B               LDR      R0,[R4, #+48]
   \   00000006   0028               CMP      R0,#+0
   \   00000008   03D0               BEQ      ??OnBackEventInput_1
   \   0000000A   ........           _BLF     GUIObject_Destroy,??GUIObject_Destroy??rT
   \   0000000E   0020               MOVS     R0,#+0
   \   00000010   2063               STR      R0,[R4, #+48]
    265            BookObj_ReturnPage(mbk, NIL_EVENT);
   \                     ??OnBackEventInput_1:
   \   00000012   0021               MOVS     R1,#+0
   \   00000014   ....               B.N      ??Subroutine37_0
    266          }
    267          

   \                                 In segment CODE, align 4, keep-with-next
    268          int pg_SC_Editor_EventInput_EnterAction(void* data, BOOK* book)
    269          {
   \                     ??pg_SC_Editor_EventInput_EnterAction:
   \   00000000   10B5               PUSH     {R4,LR}
   \   00000002   0C00               MOVS     R4,R1
    270            GotoShortcut_Book* mbk = (GotoShortcut_Book*)book;
    271            FREE_GUI(mbk->EventInput);
   \   00000004   206B               LDR      R0,[R4, #+48]
   \   00000006   0028               CMP      R0,#+0
   \   00000008   03D0               BEQ      ??pg_SC_Editor_EventInput_EnterAction_1
   \   0000000A   ........           _BLF     GUIObject_Destroy,??GUIObject_Destroy??rT
   \   0000000E   0020               MOVS     R0,#+0
   \   00000010   2063               STR      R0,[R4, #+48]
    272          
    273            mbk->EventInput = CreateStringInput( mbk );
   \                     ??pg_SC_Editor_EventInput_EnterAction_1:
   \   00000012   2000               MOVS     R0,R4
   \   00000014   ........           _BLF     CreateStringInput,??CreateStringInput??rT
   \   00000018   2063               STR      R0,[R4, #+48]
    274            StringInput_SetMode( mbk->EventInput, IT_ABC_AND_DIGIT);
   \   0000001A   0821               MOVS     R1,#+8
   \   0000001C   ........           _BLF     StringInput_SetMode,??StringInput_SetMode??rT
    275            StringInput_SetEnableEmptyText( mbk->EventInput, TRUE );
   \   00000020   206B               LDR      R0,[R4, #+48]
   \   00000022   0121               MOVS     R1,#+1
   \   00000024   ........           _BLF     StringInput_SetEnableEmptyText,??StringInput_SetEnableEmptyText??rT
    276            
    277            if(mbk->Current->sData && (mbk->Current->Type == TYPE_EVENT))
   \   00000028   A06C               LDR      R0,[R4, #+72]
   \   0000002A   4068               LDR      R0,[R0, #+4]
   \   0000002C   0028               CMP      R0,#+0
   \   0000002E   0DD0               BEQ      ??pg_SC_Editor_EventInput_EnterAction_2
   \   00000030   A06C               LDR      R0,[R4, #+72]
   \   00000032   0078               LDRB     R0,[R0, #+0]
   \   00000034   0328               CMP      R0,#+3
   \   00000036   09D1               BNE      ??pg_SC_Editor_EventInput_EnterAction_2
    278              StringInput_SetText( mbk->EventInput, TextID_Get(mbk->Current->sData) );
   \   00000038   A06C               LDR      R0,[R4, #+72]
   \   0000003A   FF22               MOVS     R2,#+255
   \   0000003C   4068               LDR      R0,[R0, #+4]
   \   0000003E   0021               MOVS     R1,#+0
   \   00000040   ........           _BLF     TextID_Create,??TextID_Create??rT
   \   00000044   0100               MOVS     R1,R0
   \   00000046   206B               LDR      R0,[R4, #+48]
   \   00000048   ........           _BLF     StringInput_SetText,??StringInput_SetText??rT
    279          
    280            StringInput_SetMinLen( mbk->EventInput, 1 );
   \                     ??pg_SC_Editor_EventInput_EnterAction_2:
   \   0000004C   206B               LDR      R0,[R4, #+48]
   \   0000004E   0121               MOVS     R1,#+1
   \   00000050   ........           _BLF     StringInput_SetMinLen,??StringInput_SetMinLen??rT
    281            StringInput_SetMaxLen( mbk->EventInput, 4 );  
   \   00000054   206B               LDR      R0,[R4, #+48]
   \   00000056   0421               MOVS     R1,#+4
   \   00000058   ........           _BLF     StringInput_SetMaxLen,??StringInput_SetMaxLen??rT
    282            StringInput_SetActionOK( mbk->EventInput, OnOkEventInput );
   \   0000005C   ....               LDR      R1,??Subroutine38_0  ;; ??OnOkEventInput
   \   0000005E   206B               LDR      R0,[R4, #+48]
   \   00000060   ........           _BLF     StringInput_SetActionOK,??StringInput_SetActionOK??rT
    283            StringInput_SetActionBack( mbk->EventInput, OnBackEventInput );
   \   00000064   ....               LDR      R1,??Subroutine38_0+0x4  ;; ??OnBackEventInput
   \   00000066   206B               LDR      R0,[R4, #+48]
   \   00000068   ........           _BLF     StringInput_SetActionBack,??StringInput_SetActionBack??rT
    284            
    285            GUIObject_SetTitleText(mbk->EventInput, EVENT_TXT );
   \   0000006C   ....               LDR      R1,??Subroutine38_0+0x8  ;; 0x103d
   \   0000006E   206B               LDR      R0,[R4, #+48]
   \   00000070   ........           _BLF     GUIObject_SetTitleText,??GUIObject_SetTitleText??rT
    286            GUIObject_Show(mbk->EventInput);
   \   00000074   206B               LDR      R0,[R4, #+48]
   \   00000076   C046               Nop      
   \   00000078                      REQUIRE ?Subroutine38
   \   00000078                      ;; // Fall through to label ?Subroutine38
    287            return 0;
    288          }
    289          

   \                                 In segment CODE, align 4, keep-with-next
    290          int pg_SC_Editor_EventInput_ExitAction(void* data, BOOK* book)
    291          {
   \                     ??pg_SC_Editor_EventInput_ExitAction:
   \   00000000   10B5               PUSH     {R4,LR}
   \   00000002   0C00               MOVS     R4,R1
    292            GotoShortcut_Book* mbk = (GotoShortcut_Book*)book;
    293            FREE_GUI(mbk->EventInput);
   \   00000004   206B               LDR      R0,[R4, #+48]
   \   00000006   0028               CMP      R0,#+0
   \   00000008   03D0               BEQ      ??pg_SC_Editor_EventInput_ExitAction_1
   \   0000000A   ........           _BLF     GUIObject_Destroy,??GUIObject_Destroy??rT
   \   0000000E   0020               MOVS     R0,#+0
   \   00000010   2063               STR      R0,[R4, #+48]
    294            return 0;
   \                     ??pg_SC_Editor_EventInput_ExitAction_1:
   \   00000012   0020               MOVS     R0,#+0
   \   00000014   10BD               POP      {R4,PC}          ;; return
    295          }
    296          
    297          const PAGE_MSG Goto_Editor_EventInput_PageEvents[] = 
    298          {
    299            PAGE_ENTER_EVENT, pg_SC_Editor_EventInput_EnterAction,
    300            PAGE_EXIT_EVENT,  pg_SC_Editor_EventInput_ExitAction,
    301            NIL_EVENT,        NULL
    302          };
    303          const PAGE_DESC Goto_Editor_EventInput_PageDesc = {EDITOR_EVENTINPUT_BASEPAGE_NAME, 0, Goto_Editor_EventInput_PageEvents};
    304          
    305          //------------------------------------------------------------------------------
    306          

   \                                 In segment CODE, align 4, keep-with-next
    307          void SelFolder_Enter( BOOK* book, GUI* gui )
    308          {
   \                     ??SelFolder_Enter:
   \   00000000   33B5               PUSH     {R0,R1,R4,R5,LR}
    309            GotoShortcut_Book* mbk = (GotoShortcut_Book*)book;
    310            mbk->FType = SFOLDER;
    311            wchar_t* str;
    312            u16 len;
    313            StringInput_GetStringAndLen( mbk->FolderInput, &str, &len );
   \   00000002   01AA               ADD      R2,SP,#+4
   \   00000004   0400               MOVS     R4,R0
   \   00000006   2500               MOVS     R5,R4
   \   00000008   3435               ADDS     R5,R5,#+52
   \   0000000A   0020               MOVS     R0,#+0
   \   0000000C   6874               STRB     R0,[R5, #+17]
   \   0000000E   2868               LDR      R0,[R5, #+0]
   \   00000010   6946               MOV      R1,SP
   \   00000012   ........           _BLF     StringInput_GetStringAndLen,??StringInput_GetStringAndLen??rT
    314            mbk->SelectFolder = CreateFileFolderSelect( mbk, str );
   \   00000016   0099               LDR      R1,[SP, #+0]
   \   00000018   2000               MOVS     R0,R4
   \   0000001A   ........           _BLF     ??CreateFileFolderSelect,??CreateFileFolderSelect??rT
   \   0000001E   6860               STR      R0,[R5, #+4]
    315          }
   \   00000020   3CBD               POP      {R2-R5,PC}       ;; return
    316          

   \                                 In segment CODE, align 4, keep-with-next
    317          void OnBackFolderInput(BOOK* book, wchar_t* string, int len)
    318          {
   \                     ??OnBackFolderInput:
   \   00000000   10B5               PUSH     {R4,LR}
   \   00000002   0400               MOVS     R4,R0
    319            GotoShortcut_Book* mbk = (GotoShortcut_Book*)book;
    320            FREE_GUI(mbk->FolderInput);
   \   00000004   606B               LDR      R0,[R4, #+52]
   \   00000006   0028               CMP      R0,#+0
   \   00000008   03D0               BEQ      ??OnBackFolderInput_1
   \   0000000A   ........           _BLF     GUIObject_Destroy,??GUIObject_Destroy??rT
   \   0000000E   0020               MOVS     R0,#+0
   \   00000010   6063               STR      R0,[R4, #+52]
    321            BookObj_ReturnPage(mbk, NIL_EVENT);
   \                     ??OnBackFolderInput_1:
   \   00000012   0021               MOVS     R1,#+0
   \   00000014   ....               B.N      ??Subroutine37_0
    322          }
    323          

   \                                 In segment CODE, align 4, keep-with-next
    324          void OnOkFolderInput(BOOK* book, wchar_t* string, int len)
    325          {
   \                     ??OnOkFolderInput:
   \   00000000   30B5               PUSH     {R4,R5,LR}
   \   00000002   0400               MOVS     R4,R0
   \   00000004   0D00               MOVS     R5,R1
    326            GotoShortcut_Book* mbk = (GotoShortcut_Book*)book;
    327            
    328            if (len > 0)
   \   00000006   012A               CMP      R2,#+1
   \   00000008   14DB               BLT      ??OnOkFolderInput_1
    329            {
    330              StringRealloc(string, &mbk->Current->sData);
   \   0000000A   A16C               LDR      R1,[R4, #+72]
   \   0000000C   2800               MOVS     R0,R5
   \   0000000E   091D               ADDS     R1,R1,#+4
   \   00000010   ........           _BLF     ??StringRealloc,??StringRealloc??rT
    331              mbk->Current->Icon = TypesIcons[TYPE_FOLDER];
   \   00000014   A06C               LDR      R0,[R4, #+72]
   \   00000016   B521               MOVS     R1,#+181
   \   00000018   4900               LSLS     R1,R1,#+1
   \   0000001A   8181               STRH     R1,[R0, #+12]
    332              mbk->Current->Type = TYPE_FOLDER;
   \   0000001C   A06C               LDR      R0,[R4, #+72]
   \   0000001E   0421               MOVS     R1,#+4
   \   00000020   0170               STRB     R1,[R0, #+0]
    333              
    334              if(!mbk->Current->Caption)
   \   00000022   A06C               LDR      R0,[R4, #+72]
   \   00000024   8068               LDR      R0,[R0, #+8]
   \   00000026   0028               CMP      R0,#+0
   \   00000028   04D1               BNE      ??OnOkFolderInput_1
    335                StringExtractFileName(string, &mbk->Current->Caption);
   \   0000002A   A16C               LDR      R1,[R4, #+72]
   \   0000002C   2800               MOVS     R0,R5
   \   0000002E   0831               ADDS     R1,R1,#+8
   \   00000030   ........           _BLF     ??StringExtractFileName,??StringExtractFileName??rT
    336            }
    337            AcceptShortcut(mbk);
   \                     ??OnOkFolderInput_1:
   \   00000034                      REQUIRE ?Subroutine41
   \   00000034                      ;; // Fall through to label ?Subroutine41
    338          }
    339          

   \                                 In segment CODE, align 4, keep-with-next
    340          int pg_SC_Editor_SelectFolder_EnterAction(void* data, BOOK* book)
    341          {
   \                     ??pg_SC_Editor_SelectFolder_EnterAction:
   \   00000000   10B5               PUSH     {R4,LR}
   \   00000002   0C00               MOVS     R4,R1
    342            GotoShortcut_Book* mbk = (GotoShortcut_Book*)book;
    343            FREE_GUI(mbk->FolderInput);
   \   00000004   606B               LDR      R0,[R4, #+52]
   \   00000006   0028               CMP      R0,#+0
   \   00000008   03D0               BEQ      ??pg_SC_Editor_SelectFolder_EnterAction_1
   \   0000000A   ........           _BLF     GUIObject_Destroy,??GUIObject_Destroy??rT
   \   0000000E   0020               MOVS     R0,#+0
   \   00000010   6063               STR      R0,[R4, #+52]
    344            
    345            mbk->FolderInput =  CreateStringInput( mbk );
   \                     ??pg_SC_Editor_SelectFolder_EnterAction_1:
   \   00000012   2000               MOVS     R0,R4
   \   00000014   ........           _BLF     CreateStringInput,??CreateStringInput??rT
   \   00000018   6063               STR      R0,[R4, #+52]
    346            StringInput_SetMode( mbk->FolderInput, IT_STRING);
   \   0000001A   0121               MOVS     R1,#+1
   \   0000001C   ........           _BLF     StringInput_SetMode,??StringInput_SetMode??rT
    347            StringInput_SetEnableEmptyText( mbk->FolderInput, FALSE );
   \   00000020   606B               LDR      R0,[R4, #+52]
   \   00000022   0021               MOVS     R1,#+0
   \   00000024   ........           _BLF     StringInput_SetEnableEmptyText,??StringInput_SetEnableEmptyText??rT
    348            
    349            if(mbk->Current->sData && (mbk->Current->Type == TYPE_FOLDER))
   \   00000028   A06C               LDR      R0,[R4, #+72]
   \   0000002A   4068               LDR      R0,[R0, #+4]
   \   0000002C   0028               CMP      R0,#+0
   \   0000002E   0DD0               BEQ      ??pg_SC_Editor_SelectFolder_EnterAction_2
   \   00000030   A06C               LDR      R0,[R4, #+72]
   \   00000032   0078               LDRB     R0,[R0, #+0]
   \   00000034   0428               CMP      R0,#+4
   \   00000036   09D1               BNE      ??pg_SC_Editor_SelectFolder_EnterAction_2
    350              StringInput_SetText( mbk->FolderInput, TextID_Get(mbk->Current->sData) );
   \   00000038   A06C               LDR      R0,[R4, #+72]
   \   0000003A   FF22               MOVS     R2,#+255
   \   0000003C   4068               LDR      R0,[R0, #+4]
   \   0000003E   0021               MOVS     R1,#+0
   \   00000040   ........           _BLF     TextID_Create,??TextID_Create??rT
   \   00000044   0100               MOVS     R1,R0
   \   00000046   606B               LDR      R0,[R4, #+52]
   \   00000048   ........           _BLF     StringInput_SetText,??StringInput_SetText??rT
    351            
    352            //StringInput_SetMinLen( mbk->FolderInput, 1 );
    353            StringInput_SetMaxLen( mbk->FolderInput, 255 );  
   \                     ??pg_SC_Editor_SelectFolder_EnterAction_2:
   \   0000004C   606B               LDR      R0,[R4, #+52]
   \   0000004E   FF21               MOVS     R1,#+255
   \   00000050   ........           _BLF     StringInput_SetMaxLen,??StringInput_SetMaxLen??rT
    354            StringInput_SetActionOK( mbk->FolderInput, OnOkFolderInput );
   \   00000054   0A49               LDR      R1,??pg_SC_Editor_SelectFolder_EnterAction_3  ;; ??OnOkFolderInput
   \   00000056   606B               LDR      R0,[R4, #+52]
   \   00000058   ........           _BLF     StringInput_SetActionOK,??StringInput_SetActionOK??rT
    355            StringInput_SetActionBack( mbk->FolderInput, OnBackFolderInput );
   \   0000005C   0949               LDR      R1,??pg_SC_Editor_SelectFolder_EnterAction_3+0x4  ;; ??OnBackFolderInput
   \   0000005E   606B               LDR      R0,[R4, #+52]
   \   00000060   ........           _BLF     StringInput_SetActionBack,??StringInput_SetActionBack??rT
    356            
    357            GUIObject_SoftKeys_SetActionAndText( mbk->FolderInput, 0, SelFolder_Enter, SELECT_FOLDER_TXT );
   \   00000064   084A               LDR      R2,??pg_SC_Editor_SelectFolder_EnterAction_3+0x8  ;; ??SelFolder_Enter
   \   00000066   606B               LDR      R0,[R4, #+52]
   \   00000068   C223               MOVS     R3,#+194
   \   0000006A   DB00               LSLS     R3,R3,#+3
   \   0000006C   0021               MOVS     R1,#+0
   \   0000006E   ........           _BLF     GUIObject_SoftKeys_SetActionAndText,??GUIObject_SoftKeys_SetActionAndText??rT
    358            StringInput_MenuItem_SetPriority( mbk->FolderInput, 0, 0 );
   \   00000072   606B               LDR      R0,[R4, #+52]
   \   00000074   0022               MOVS     R2,#+0
   \   00000076   0021               MOVS     R1,#+0
   \   00000078   ........           _BLF     StringInput_MenuItem_SetPriority,??StringInput_MenuItem_SetPriority??rT
    359            
    360            GUIObject_Show(mbk->FolderInput);
   \   0000007C   606B               LDR      R0,[R4, #+52]
   \   0000007E   ....               B.N      ?Subroutine38
   \                     ??pg_SC_Editor_SelectFolder_EnterAction_3:
   \   00000080   ........           DC32     ??OnOkFolderInput
   \   00000084   ........           DC32     ??OnBackFolderInput
   \   00000088   ........           DC32     ??SelFolder_Enter
    361            return 0;
    362          }
    363          

   \                                 In segment CODE, align 4, keep-with-next
    364          int pg_SC_Editor_SelectFolder_ExitAction(void* data, BOOK* book)
    365          {
   \                     ??pg_SC_Editor_SelectFolder_ExitAction:
   \   00000000   10B5               PUSH     {R4,LR}
   \   00000002   0C00               MOVS     R4,R1
    366            GotoShortcut_Book* mbk = (GotoShortcut_Book*)book;
    367            FREE_GUI(mbk->SelectFolder);
   \   00000004   A06B               LDR      R0,[R4, #+56]
   \   00000006   0028               CMP      R0,#+0
   \   00000008   03D0               BEQ      ??pg_SC_Editor_SelectFolder_ExitAction_1
   \   0000000A   ........           _BLF     GUIObject_Destroy,??GUIObject_Destroy??rT
   \   0000000E   0020               MOVS     R0,#+0
   \   00000010   A063               STR      R0,[R4, #+56]
    368            return 0;
   \                     ??pg_SC_Editor_SelectFolder_ExitAction_1:
   \   00000012   0020               MOVS     R0,#+0
   \   00000014   10BD               POP      {R4,PC}          ;; return
    369          }

   \                                 In segment DATA_C, align 4, align-sorted
   \                     Goto_Editor_MainMenu_PageDesc:
   \   00000000   ........0000       DC32 `?<Constant "SC_Editor_SelectShort...">`, 0H
   \              0000        
   \   00000008   ........           DC32 Goto_Editor_MainMenu_PageEvents
   \   0000000C   ........0000       DC32 `?<Constant "SC_Editor_SetJava_Page">`, 0H
   \              0000        
   \   00000014   ........           DC32 Goto_Editor_JavaList_PageEvents
   \   00000018   ........0000       DC32 `?<Constant "SC_Editor_SelectElf_Page">`, 0H
   \              0000        
   \   00000020   ........           DC32 Goto_Editor_DataBrowser_PageEvents
   \   00000024   ........0000       DC32 `?<Constant "SC_Editor_EventInput_...">`, 0H
   \              0000        
   \   0000002C   ........           DC32 Goto_Editor_EventInput_PageEvents
   \   00000030   ........0000       DC32 `?<Constant "SC_Editor_SelectFolde...">`, 0H
   \              0000        
   \   00000038   ........           DC32 Goto_Editor_SelectFolder_PageEvents

   \                                 In segment DATA_C, align 4, align-sorted
   \                     Goto_Editor_JavaList_PageEvents:
   \   00000000   0F000000....       DC32 15, ??CreateJavaList, 16, ??CloseJavaList, 0, 0H
   \              ....10000000
   \              ........0000
   \              000000000000

   \                                 In segment DATA_C, align 4, align-sorted
   \                     Goto_Editor_DataBrowser_PageEvents:
   \   00000000   0F000000....       DC32 15, ??CreateDataBrowser, 2, ??Select_DB, 3, ??Cancel_MainMenu_DB
   \              ....02000000
   \              ........0300
   \              0000........
   \   00000018   04000000....       DC32 4, ??Cancel_MainMenu_DB, 0, 0H
   \              ....00000000
   \              00000000    

   \                                 In segment DATA_C, align 4, align-sorted
   \                     Goto_Editor_EventInput_PageEvents:
   \   00000000   0F000000....       DC32 15, ??pg_SC_Editor_EventInput_EnterAction, 16
   \              ....10000000
   \   0000000C   ........0000       DC32 ??pg_SC_Editor_EventInput_ExitAction, 0, 0H
   \              000000000000
    370          

   \                                 In segment DATA_C, align 4, align-sorted
    371          const PAGE_MSG Goto_Editor_SelectFolder_PageEvents[] = 
   \                     Goto_Editor_SelectFolder_PageEvents:
   \   00000000   0F000000....       DC32 15, ??pg_SC_Editor_SelectFolder_EnterAction, 16
   \              ....10000000
   \   0000000C   ........0000       DC32 ??pg_SC_Editor_SelectFolder_ExitAction, 0, 0H
   \              000000000000
    372          {
    373            PAGE_ENTER_EVENT, pg_SC_Editor_SelectFolder_EnterAction,
    374            PAGE_EXIT_EVENT,  pg_SC_Editor_SelectFolder_ExitAction,
    375            NIL_EVENT,        NULL
    376          };
    377          const PAGE_DESC Goto_Editor_SelectFolder_PageDesc = {EDITOR_SELECTFOLDER_BASEPAGE_NAME, 0, Goto_Editor_SelectFolder_PageEvents};
    378          
    379          //------------------------------------------------------------------------------
    380          

   \                                 In segment CODE, align 4, keep-with-next
    381          TEXTID Get_SCTypes_Text(int item)
    382          {
    383            const wchar_t* TypesCaptions[TYPE_LAST] =
    384            {
    385              L"Shortcut",
    386              L"Java",
    387              L"Elf",
    388              L"Event",
    389              L"Folder"
    390            };
   \                     ??Get_SCTypes_Text:
   \   00000000   084A               LDR      R2,??Get_SCTypes_Text_1  ;; `?<Constant {&L"\\x53\\x68\\x6f\\x72\\x74\\x63\\x75\\x7`
   \   00000002   10B5               PUSH     {R4,LR}
   \   00000004   85B0               SUB      SP,SP,#+20
   \   00000006   6946               MOV      R1,SP
   \   00000008   1424               MOVS     R4,#+20
   \                     ??Get_SCTypes_Text_2:
   \   0000000A   241F               SUBS     R4,R4,#+4
   \   0000000C   1359               LDR      R3,[R2, R4]
   \   0000000E   0B51               STR      R3,[R1, R4]
   \   00000010   FBD1               BNE      ??Get_SCTypes_Text_2
    391            return TextID_Get(TypesCaptions[item]);
   \   00000012   FF22               MOVS     R2,#+255
   \   00000014   0021               MOVS     R1,#+0
   \   00000016   8000               LSLS     R0,R0,#+2
   \   00000018   6B46               MOV      R3,SP
   \   0000001A   1858               LDR      R0,[R3, R0]
   \   0000001C   ........           _BLF     TextID_Create,??TextID_Create??rT
   \   00000020   05B0               ADD      SP,SP,#+20
   \   00000022   10BD               POP      {R4,PC}          ;; return
   \                     ??Get_SCTypes_Text_1:
   \   00000024   ........           DC32     `?<Constant {&L"\\x53\\x68\\x6f\\x72\\x74\\x63\\x75\\x7`
    392          }
    393          

   \                                 In segment CODE, align 4, keep-with-next
    394          void TypesList_onSelect(BOOK* book, GUI* gui)
    395          {
   \                     ??TypesList_onSelect:
   \   00000000   30B5               PUSH     {R4,R5,LR}
    396            GotoShortcut_Book* mbk = (GotoShortcut_Book*)book;
    397            switch(ListMenu_GetSelectedItem(mbk->TypesList))
   \   00000002   0D4D               LDR      R5,??TypesList_onSelect_2  ;; Goto_Editor_MainMenu_PageDesc
   \   00000004   0400               MOVS     R4,R0
   \   00000006   606A               LDR      R0,[R4, #+36]
   \   00000008   ........           _BLF     ListMenu_GetSelectedItem,??ListMenu_GetSelectedItem??rT
   \   0000000C   0428               CMP      R0,#+4
   \   0000000E   11D8               BHI      ??TypesList_onSelect_3
   \   00000010   01A1               ADR      R1,??TypesList_onSelect_1
   \   00000012   095C               LDRB     R1,[R1, R0]
   \   00000014   8F44               ADD      PC,PC,R1
   \   00000016   C046               Nop      
   \                     ??TypesList_onSelect_1:
   \   00000018   08060A0E           DC8      +8,+6,+10,+14
   \   0000001C   1200               DC8      +18,+0
    398            {
    399            case TYPE_SHORTCUT:            
    400              BookObj_CallPage(mbk, &Goto_Editor_MainMenu_PageDesc);
    401              break;
    402            case TYPE_JAVA:
    403              BookObj_CallPage(mbk, &Goto_Editor_JavaList_PageDesc);
   \                     ??TypesList_onSelect_4:
   \   0000001E   0C35               ADDS     R5,R5,#+12
   \                     ??TypesList_onSelect_5:
   \   00000020   ....               B.N      ?Subroutine40
    404              break;
    405            case TYPE_ELF:
    406              BookObj_CallPage(mbk, &Goto_Editor_DataBrowser_PageDesc);
   \                     ??TypesList_onSelect_6:
   \   00000022   1835               ADDS     R5,R5,#+24
   \   00000024   FCE7               B.N      ??TypesList_onSelect_5
    407              break;
    408            case TYPE_EVENT:
    409              BookObj_CallPage(mbk, &Goto_Editor_EventInput_PageDesc);
   \                     ??TypesList_onSelect_7:
   \   00000026   2435               ADDS     R5,R5,#+36
   \   00000028   FAE7               B.N      ??TypesList_onSelect_5
    410              break;
    411            case TYPE_FOLDER:
    412              BookObj_CallPage(mbk, &Goto_Editor_SelectFolder_PageDesc);
   \                     ??TypesList_onSelect_8:
   \   0000002A   3035               ADDS     R5,R5,#+48
   \   0000002C   2900               MOVS     R1,R5
   \   0000002E   2000               MOVS     R0,R4
   \   00000030   ........           _BLF     BookObj_CallPage,??BookObj_CallPage??rT
    413              break;
    414            }
    415          }
   \                     ??TypesList_onSelect_3:
   \   00000034   30BD               POP      {R4,R5,PC}       ;; return
   \   00000036   C046               Nop      
   \                     ??TypesList_onSelect_2:
   \   00000038   ........           DC32     Goto_Editor_MainMenu_PageDesc

   \                                 In segment CODE, align 4, keep-with-next
   \                     ?Subroutine40:
   \   00000000   2900               MOVS     R1,R5
   \                     ??Subroutine40_0:
   \   00000002   2000               MOVS     R0,R4
   \   00000004   ........           _BLF     BookObj_CallPage,??BookObj_CallPage??rT
   \   00000008   30BD               POP      {R4,R5,PC}
   \   0000000A   C046               Nop      
   \                     ??Subroutine40_1:
   \   0000000C   ........           DC32     Goto_Editor_TypesList_PageDesc
    416          

   \                                 In segment CODE, align 4, keep-with-next
    417          int TypesList_onMessage(GUI_MESSAGE* msg)
    418          {
   \                     ??TypesList_onMessage:
   \   00000000   30B5               PUSH     {R4,R5,LR}
   \   00000002   0400               MOVS     R4,R0
    419            switch(GUIonMessage_GetMsg(msg))
   \   00000004   ........           _BLF     GUIonMessage_GetMsg,??GUIonMessage_GetMsg??rT
   \   00000008   0128               CMP      R0,#+1
   \   0000000A   10D1               BNE      ??TypesList_onMessage_1
    420            {
    421            case LISTMSG_GetItem:
    422              int index = GUIonMessage_GetCreatedItemIndex(msg);    
   \   0000000C   2000               MOVS     R0,R4
   \   0000000E   ........           _BLF     GUIonMessage_GetCreatedItemIndex,??GUIonMessage_GetCreatedItemIndex??rT
   \   00000012   0500               MOVS     R5,R0
    423              GUIonMessage_SetMenuItemText(msg, Get_SCTypes_Text(index));
   \   00000014   ........           BL       ??Get_SCTypes_Text
   \   00000018   0100               MOVS     R1,R0
   \   0000001A   2000               MOVS     R0,R4
   \   0000001C   ........           _BLF     GUIonMessage_SetMenuItemText,??GUIonMessage_SetMenuItemText??rT
    424              GUIonMessage_SetMenuItemIcon(msg, 0, TypesIcons[index]);
   \   00000020   0449               LDR      R1,??TypesList_onMessage_2  ;; TypesIcons
   \   00000022   6800               LSLS     R0,R5,#+1
   \   00000024   0A5A               LDRH     R2,[R1, R0]
   \   00000026   0021               MOVS     R1,#+0
   \   00000028   2000               MOVS     R0,R4
   \   0000002A   ........           _BLF     GUIonMessage_SetMenuItemIcon,??GUIonMessage_SetMenuItemIcon??rT
    425              break;
    426            }
    427            return 1;
   \                     ??TypesList_onMessage_1:
   \   0000002E   0120               MOVS     R0,#+1
   \   00000030   30BD               POP      {R4,R5,PC}       ;; return
   \   00000032   C046               Nop      
   \                     ??TypesList_onMessage_2:
   \   00000034   ........           DC32     TypesIcons
    428          }
    429          /*
    430          void Types_Back(BOOK* book, GUI* gui)
    431          {
    432            BookObj_ReturnPage(book, NIL_EVENT);    
    433          }
    434          */
    435          

   \                                 In segment CODE, align 4, keep-with-next
    436          int pg_SC_Editor_TypesList_EnterAction(void* data, BOOK* book)
    437          {
   \                     ??pg_SC_Editor_TypesList_EnterAction:
   \   00000000   10B5               PUSH     {R4,LR}
   \   00000002   0C00               MOVS     R4,R1
    438            GotoShortcut_Book* mbk = (GotoShortcut_Book*)book;
    439            mbk->TypesList = CreateListMenu(mbk, UIDisplay_Main);
   \   00000004   0021               MOVS     R1,#+0
   \   00000006   2000               MOVS     R0,R4
   \   00000008   ........           _BLF     CreateListMenu,??CreateListMenu??rT
    440            GUIObject_SetTitleText(mbk->TypesList, TYPES_TITLE_TXT);
   \   0000000C   0E49               LDR      R1,??pg_SC_Editor_TypesList_EnterAction_1  ;; 0x103f
   \   0000000E   6062               STR      R0,[R4, #+36]
   \   00000010   ........           _BLF     GUIObject_SetTitleText,??GUIObject_SetTitleText??rT
    441            ListMenu_SetItemCount(mbk->TypesList, TYPE_LAST);
   \   00000014   606A               LDR      R0,[R4, #+36]
   \   00000016   0521               MOVS     R1,#+5
   \   00000018   ........           _BLF     ListMenu_SetItemCount,??ListMenu_SetItemCount??rT
    442            ListMenu_SetCursorToItem(mbk->TypesList, 0);
   \   0000001C   606A               LDR      R0,[R4, #+36]
   \   0000001E   0021               MOVS     R1,#+0
   \   00000020   ........           _BLF     ListMenu_SetCursorToItem,??ListMenu_SetCursorToItem??rT
    443            ListMenu_SetOnMessage(mbk->TypesList, TypesList_onMessage); 
   \   00000024   0949               LDR      R1,??pg_SC_Editor_TypesList_EnterAction_1+0x4  ;; ??TypesList_onMessage
   \   00000026   606A               LDR      R0,[R4, #+36]
   \   00000028   ........           _BLF     ListMenu_SetOnMessage,??ListMenu_SetOnMessage??rT
    444            GUIObject_SoftKeys_SetAction(mbk->TypesList, ACTION_SELECT1, TypesList_onSelect);
   \   0000002C   ....               LDR      R1,??DataTable8  ;; 0xfc2
   \   0000002E   084A               LDR      R2,??pg_SC_Editor_TypesList_EnterAction_1+0x8  ;; ??TypesList_onSelect
   \   00000030   606A               LDR      R0,[R4, #+36]
   \   00000032   ........           _BLF     GUIObject_SoftKeys_SetAction,??GUIObject_SoftKeys_SetAction??rT
    445            GUIObject_SoftKeys_SetAction(mbk->TypesList, ACTION_BACK, Action_Back);
   \   00000036   ....               LDR      R2,??DataTable7  ;; ??Action_Back
   \   00000038   606A               LDR      R0,[R4, #+36]
   \   0000003A   FC21               MOVS     R1,#+252
   \   0000003C   0901               LSLS     R1,R1,#+4
   \   0000003E   ........           _BLF     GUIObject_SoftKeys_SetAction,??GUIObject_SoftKeys_SetAction??rT
    446            GUIObject_Show(mbk->TypesList);
   \   00000042   606A               LDR      R0,[R4, #+36]
   \   00000044   ....               B.N      ?Subroutine39
   \   00000046   C046               Nop      
   \                     ??pg_SC_Editor_TypesList_EnterAction_1:
   \   00000048   3F100000           DC32     0x103f
   \   0000004C   ........           DC32     ??TypesList_onMessage
   \   00000050   ........           DC32     ??TypesList_onSelect
    447            return 1;
    448          }

   \                                 In segment CODE, align 4, keep-with-next
   \                     ?Subroutine39:
   \   00000000   ........           _BLF     GUIObject_Show,??GUIObject_Show??rT
   \   00000004   0120               MOVS     R0,#+1
   \   00000006   10BD               POP      {R4,PC}          ;; return
   \                     ??Subroutine39_0:
   \   00000008   55270000           DC32     0x2755
   \   0000000C   ........           DC32     ??Editor_onMessage
   \   00000010   ........           DC32     ??Editor_onSelect
   \   00000014   ........           DC32     ??Editor_onBack
    449          

   \                                 In segment CODE, align 4, keep-with-next
    450          int pg_SC_Editor_TypesList_ExitAction(void* data, BOOK* book)
    451          {
   \                     ??pg_SC_Editor_TypesList_ExitAction:
   \   00000000   10B5               PUSH     {R4,LR}
   \   00000002   0C00               MOVS     R4,R1
    452            GotoShortcut_Book* mbk = (GotoShortcut_Book*)book;
    453            FREE_GUI(mbk->TypesList);
   \   00000004   606A               LDR      R0,[R4, #+36]
   \   00000006   0028               CMP      R0,#+0
   \   00000008   03D0               BEQ      ??pg_SC_Editor_TypesList_ExitAction_1
   \   0000000A   ........           _BLF     GUIObject_Destroy,??GUIObject_Destroy??rT
   \   0000000E   0020               MOVS     R0,#+0
   \   00000010   6062               STR      R0,[R4, #+36]
    454            return 0;
   \                     ??pg_SC_Editor_TypesList_ExitAction_1:
   \   00000012   0020               MOVS     R0,#+0
   \   00000014   10BD               POP      {R4,PC}          ;; return
    455          }
    456          

   \                                 In segment DATA_C, align 4, align-sorted
    457          const PAGE_MSG Goto_Editor_TypesList_PageEvents[] = 
   \                     Goto_Editor_TypesList_PageEvents:
   \   00000000   0F000000....       DC32 15, ??pg_SC_Editor_TypesList_EnterAction, 16
   \              ....10000000
   \   0000000C   ........0000       DC32 ??pg_SC_Editor_TypesList_ExitAction, 0, 0H
   \              000000000000
    458          {
    459            PAGE_ENTER_EVENT, pg_SC_Editor_TypesList_EnterAction,
    460            PAGE_EXIT_EVENT,  pg_SC_Editor_TypesList_ExitAction,
    461            NIL_EVENT,        NULL
    462          };
    463          const PAGE_DESC Goto_Editor_TypesList_PageDesc = {EDITOR_TYPESLIST_BASEPAGE_NAME, 0, Goto_Editor_TypesList_PageEvents};
    464          
    465          //------------------------------------------------------------------------------
    466          

   \                                 In segment CODE, align 4, keep-with-next
    467          void OnOkCaptionInput(BOOK* book, wchar_t* string, int len)
    468          {
   \                     ??OnOkCaptionInput:
   \   00000000   10B5               PUSH     {R4,LR}
   \   00000002   0400               MOVS     R4,R0
   \   00000004   0800               MOVS     R0,R1
    469            GotoShortcut_Book* mbk = (GotoShortcut_Book*)book;
    470          
    471            if (len > 0) StringReallocEx(string, &mbk->Current->Caption, len);
   \   00000006   012A               CMP      R2,#+1
   \   00000008   03DB               BLT      ??OnOkCaptionInput_1
   \   0000000A   A16C               LDR      R1,[R4, #+72]
   \   0000000C   0831               ADDS     R1,R1,#+8
   \   0000000E   ........           _BLF     ??StringReallocEx,??StringReallocEx??rT
   \                     ??OnOkCaptionInput_1:
   \   00000012   C046               Nop      
    472              
    473            BookObj_ReturnPage(mbk, ACCEPT_EVENT);
   \   00000014                      REQUIRE ?Subroutine37
   \   00000014                      ;; // Fall through to label ?Subroutine37
    474          }
    475          /*
    476          void OnBackCaptionInput(BOOK* book, wchar_t* string, int len)
    477          {
    478            BookObj_ReturnPage(book, NIL_EVENT);
    479          }
    480          */   

   \                                 In segment CODE, align 4, keep-with-next
    481          int pg_SC_Editor_LabelInput_EnterAction(void* data, BOOK* book)
    482          {
   \                     ??pg_SC_Editor_LabelInput_EnterAction:
   \   00000000   10B5               PUSH     {R4,LR}
   \   00000002   0C00               MOVS     R4,R1
    483            GotoShortcut_Book* mbk = (GotoShortcut_Book*)book;
    484            FREE_GUI(mbk->CaptionInput);
   \   00000004   A06A               LDR      R0,[R4, #+40]
   \   00000006   0028               CMP      R0,#+0
   \   00000008   03D0               BEQ      ??pg_SC_Editor_LabelInput_EnterAction_1
   \   0000000A   ........           _BLF     GUIObject_Destroy,??GUIObject_Destroy??rT
   \   0000000E   0020               MOVS     R0,#+0
   \   00000010   A062               STR      R0,[R4, #+40]
    485          
    486            mbk->CaptionInput = CreateStringInput( mbk );
   \                     ??pg_SC_Editor_LabelInput_EnterAction_1:
   \   00000012   2000               MOVS     R0,R4
   \   00000014   ........           _BLF     CreateStringInput,??CreateStringInput??rT
   \   00000018   A062               STR      R0,[R4, #+40]
    487            StringInput_SetMode( mbk->CaptionInput, IT_STRING);
   \   0000001A   0121               MOVS     R1,#+1
   \   0000001C   ........           _BLF     StringInput_SetMode,??StringInput_SetMode??rT
    488            StringInput_SetEnableEmptyText( mbk->CaptionInput, TRUE );
   \   00000020   A06A               LDR      R0,[R4, #+40]
   \   00000022   0121               MOVS     R1,#+1
   \   00000024   ........           _BLF     StringInput_SetEnableEmptyText,??StringInput_SetEnableEmptyText??rT
    489            StringInput_SetText( mbk->CaptionInput, TextID_Get(mbk->Current->Caption) );
   \   00000028   A06C               LDR      R0,[R4, #+72]
   \   0000002A   FF22               MOVS     R2,#+255
   \   0000002C   8068               LDR      R0,[R0, #+8]
   \   0000002E   0021               MOVS     R1,#+0
   \   00000030   ........           _BLF     TextID_Create,??TextID_Create??rT
   \   00000034   0100               MOVS     R1,R0
   \   00000036   A06A               LDR      R0,[R4, #+40]
   \   00000038   ........           _BLF     StringInput_SetText,??StringInput_SetText??rT
    490            StringInput_SetMinLen( mbk->CaptionInput, 1 );
   \   0000003C   A06A               LDR      R0,[R4, #+40]
   \   0000003E   0121               MOVS     R1,#+1
   \   00000040   ........           _BLF     StringInput_SetMinLen,??StringInput_SetMinLen??rT
    491            StringInput_SetMaxLen( mbk->CaptionInput, 63 );  
   \   00000044   A06A               LDR      R0,[R4, #+40]
   \   00000046   3F21               MOVS     R1,#+63
   \   00000048   ........           _BLF     StringInput_SetMaxLen,??StringInput_SetMaxLen??rT
    492            StringInput_SetActionOK( mbk->CaptionInput, OnOkCaptionInput );
   \   0000004C   0549               LDR      R1,??pg_SC_Editor_LabelInput_EnterAction_2  ;; ??OnOkCaptionInput
   \   0000004E   A06A               LDR      R0,[R4, #+40]
   \   00000050   ........           _BLF     StringInput_SetActionOK,??StringInput_SetActionOK??rT
    493            //StringInput_SetActionNo( mbk->CaptionInput, OnBackCaptionInput );
    494            GUIObject_SoftKeys_SetAction(mbk->CaptionInput, ACTION_BACK, Action_Back);
   \   00000054   ....               LDR      R2,??DataTable7  ;; ??Action_Back
   \   00000056   A06A               LDR      R0,[R4, #+40]
   \   00000058   FC21               MOVS     R1,#+252
   \   0000005A   0901               LSLS     R1,R1,#+4
   \   0000005C   ........           _BLF     GUIObject_SoftKeys_SetAction,??GUIObject_SoftKeys_SetAction??rT
    495            GUIObject_Show(mbk->CaptionInput);
   \   00000060   A06A               LDR      R0,[R4, #+40]
   \   00000062   ....               B.N      ?Subroutine38
   \                     ??pg_SC_Editor_LabelInput_EnterAction_2:
   \   00000064   ........           DC32     ??OnOkCaptionInput
    496            return 0;
    497          }
    498          

   \                                 In segment CODE, align 4, keep-with-next
    499          int pg_SC_Editor_LabelInput_ExitAction(void* data, BOOK* book)
    500          {
   \                     ??pg_SC_Editor_LabelInput_ExitAction:
   \   00000000   10B5               PUSH     {R4,LR}
   \   00000002   0C00               MOVS     R4,R1
    501            GotoShortcut_Book* mbk = (GotoShortcut_Book*)book;
    502            FREE_GUI(mbk->CaptionInput);
   \   00000004   A06A               LDR      R0,[R4, #+40]
   \   00000006   0028               CMP      R0,#+0
   \   00000008   03D0               BEQ      ??pg_SC_Editor_LabelInput_ExitAction_1
   \   0000000A   ........           _BLF     GUIObject_Destroy,??GUIObject_Destroy??rT
   \   0000000E   0020               MOVS     R0,#+0
   \   00000010   A062               STR      R0,[R4, #+40]
    503            return 0;
   \                     ??pg_SC_Editor_LabelInput_ExitAction_1:
   \   00000012   0020               MOVS     R0,#+0
   \   00000014   10BD               POP      {R4,PC}          ;; return
    504          }

   \                                 In segment DATA_C, align 4, align-sorted
   \                     Goto_Editor_TypesList_PageDesc:
   \   00000000   ........0000       DC32 `?<Constant "SC_Editor_TypesList_Page">`, 0H
   \              0000        
   \   00000008   ........           DC32 Goto_Editor_TypesList_PageEvents
   \   0000000C   ........0000       DC32 `?<Constant "SC_Editor_LabelInput_...">`, 0H
   \              0000        
   \   00000014   ........           DC32 Goto_Editor_CaptionInput_PageEvents
    505          

   \                                 In segment DATA_C, align 4, align-sorted
    506          const PAGE_MSG Goto_Editor_CaptionInput_PageEvents[] = 
   \                     Goto_Editor_CaptionInput_PageEvents:
   \   00000000   0F000000....       DC32 15, ??pg_SC_Editor_LabelInput_EnterAction, 16
   \              ....10000000
   \   0000000C   ........0000       DC32 ??pg_SC_Editor_LabelInput_ExitAction, 0, 0H
   \              000000000000
    507          {
    508            PAGE_ENTER_EVENT, pg_SC_Editor_LabelInput_EnterAction,
    509            PAGE_EXIT_EVENT,  pg_SC_Editor_LabelInput_ExitAction,
    510            NIL_EVENT,        NULL
    511          };
    512          const PAGE_DESC Goto_Editor_CaptionInput_PageDesc = {EDITOR_CAPTIONINPUT_BASEPAGE_NAME, 0, Goto_Editor_CaptionInput_PageEvents};
    513          
    514          
    515          //------------------------------------------------------------------------------
    516          

   \                                 In segment CODE, align 4, keep-with-next
    517          void Editor_onSelect(BOOK* book, GUI* gui)
    518          {
   \                     ??Editor_onSelect:
   \   00000000   30B5               PUSH     {R4,R5,LR}
    519            GotoShortcut_Book* mbk = (GotoShortcut_Book*)book;
    520            switch(ListMenu_GetSelectedItem(mbk->Editor))
   \   00000002   ....               LDR      R5,??Subroutine40_1  ;; Goto_Editor_TypesList_PageDesc
   \   00000004   0400               MOVS     R4,R0
   \   00000006   E069               LDR      R0,[R4, #+28]
   \   00000008   ........           _BLF     ListMenu_GetSelectedItem,??ListMenu_GetSelectedItem??rT
   \   0000000C   0028               CMP      R0,#+0
   \   0000000E   02D0               BEQ      ??Editor_onSelect_1
   \   00000010   0128               CMP      R0,#+1
   \   00000012   01D0               BEQ      ??Editor_onSelect_2
   \   00000014   30BD               POP      {R4,R5,PC}
    521            {
    522            case 0:
    523              BookObj_CallPage(mbk, &Goto_Editor_CaptionInput_PageDesc);
   \                     ??Editor_onSelect_1:
   \   00000016   0C35               ADDS     R5,R5,#+12
    524              break;
    525            case 1:
    526              BookObj_CallPage(mbk, &Goto_Editor_TypesList_PageDesc);
   \                     ??Editor_onSelect_2:
   \   00000018                      REQUIRE ?Subroutine40
   \   00000018                      ;; // Fall through to label ?Subroutine40
    527              break;
    528            }
    529          }
    530          

   \                                 In segment CODE, align 4, keep-with-next
    531          void Editor_onBack(BOOK* book, GUI* gui)
    532          {
   \                     ??Editor_onBack:
   \   00000000   10B5               PUSH     {R4,LR}
   \   00000002   0400               MOVS     R4,R0
    533            GotoShortcut_Book* mbk = (GotoShortcut_Book*)book;
    534            if(!mbk->Current->sData || !mbk->Current->Caption)
   \   00000004   A06C               LDR      R0,[R4, #+72]
   \   00000006   4068               LDR      R0,[R0, #+4]
   \   00000008   0028               CMP      R0,#+0
   \   0000000A   03D0               BEQ      ??Editor_onBack_1
   \   0000000C   A06C               LDR      R0,[R4, #+72]
   \   0000000E   8068               LDR      R0,[R0, #+8]
   \   00000010   0028               CMP      R0,#+0
   \   00000012   04D1               BNE      ??Editor_onBack_2
    535            {
    536              void* Item = List_RemoveFirst(mbk->Items);
   \                     ??Editor_onBack_1:
   \   00000014   E06B               LDR      R0,[R4, #+60]
   \   00000016   ........           _BLF     List_RemoveFirst,??List_RemoveFirst??rT
    537              ShortcutFree(Item);
   \   0000001A   ........           _BLF     ??ShortcutFree,??ShortcutFree??rT
    538              //UpdateMainPage(NULL, mbk);
    539            }
    540            BookObj_ReturnPage(book, ACCEPT_EVENT);
   \                     ??Editor_onBack_2:
   \   0000001E   ....               B.N      ?Subroutine37
    541          }
    542          

   \                                 In segment CODE, align 4, keep-with-next
    543          int Editor_onMessage(GUI_MESSAGE *msg)
    544          {
   \                     ??Editor_onMessage:
   \   00000000   70B5               PUSH     {R4-R6,LR}
   \   00000002   0400               MOVS     R4,R0
    545            switch(GUIonMessage_GetMsg(msg))
   \   00000004   ........           _BLF     GUIonMessage_GetMsg,??GUIonMessage_GetMsg??rT
   \   00000008   0128               CMP      R0,#+1
   \   0000000A   28D1               BNE      ??Editor_onMessage_1
    546            {
    547            case LISTMSG_GetItem:
    548              GotoShortcut_Book* mbk = (GotoShortcut_Book*)GUIonMessage_GetBook(msg);
   \   0000000C   2000               MOVS     R0,R4
   \   0000000E   ........           _BLF     GUIonMessage_GetBook,??GUIonMessage_GetBook??rT
   \   00000012   0500               MOVS     R5,R0
    549              int index = GUIonMessage_GetCreatedItemIndex(msg); 
   \   00000014   2000               MOVS     R0,R4
   \   00000016   ........           _BLF     GUIonMessage_GetCreatedItemIndex,??GUIonMessage_GetCreatedItemIndex??rT
    550              GUIonMessage_SetMenuItemIcon(msg, 0, EditorIcons[index]);
   \   0000001A   1249               LDR      R1,??Editor_onMessage_2  ;; EditorIcons
   \   0000001C   0600               MOVS     R6,R0
   \   0000001E   7000               LSLS     R0,R6,#+1
   \   00000020   0A5A               LDRH     R2,[R1, R0]
   \   00000022   0021               MOVS     R1,#+0
   \   00000024   2000               MOVS     R0,R4
   \   00000026   ........           _BLF     GUIonMessage_SetMenuItemIcon,??GUIonMessage_SetMenuItemIcon??rT
    551              if (index == 0)
   \   0000002A   002E               CMP      R6,#+0
   \   0000002C   07D1               BNE      ??Editor_onMessage_3
    552              {
    553                GUIonMessage_SetMenuItemText(msg, EDITOR_LABEL_TXT);
   \   0000002E   0E49               LDR      R1,??Editor_onMessage_2+0x4  ;; 0xea1
   \   00000030   2000               MOVS     R0,R4
   \   00000032   ........           _BLF     GUIonMessage_SetMenuItemText,??GUIonMessage_SetMenuItemText??rT
    554                GUIonMessage_SetMenuItemSecondLineText(msg, TextID_Get(mbk->Current->Caption));
   \   00000036   A86C               LDR      R0,[R5, #+72]
   \   00000038   FF22               MOVS     R2,#+255
   \   0000003A   8068               LDR      R0,[R0, #+8]
   \   0000003C   08E0               B.N      ??Editor_onMessage_4
    555              }
    556              if (index == 1)
   \                     ??Editor_onMessage_3:
   \   0000003E   012E               CMP      R6,#+1
   \   00000040   0DD1               BNE      ??Editor_onMessage_1
    557              {
    558                GUIonMessage_SetMenuItemText(msg, EDITOR_SHORTCUT_TXT);
   \   00000042   0A49               LDR      R1,??Editor_onMessage_2+0x8  ;; 0x198f
   \   00000044   2000               MOVS     R0,R4
   \   00000046   ........           _BLF     GUIonMessage_SetMenuItemText,??GUIonMessage_SetMenuItemText??rT
    559                GUIonMessage_SetMenuItemSecondLineText(msg, TextID_Get(mbk->Current->sData)); 
   \   0000004A   A86C               LDR      R0,[R5, #+72]
   \   0000004C   FF22               MOVS     R2,#+255
   \   0000004E   4068               LDR      R0,[R0, #+4]
   \                     ??Editor_onMessage_4:
   \   00000050   0021               MOVS     R1,#+0
   \   00000052   ........           _BLF     TextID_Create,??TextID_Create??rT
   \   00000056   0100               MOVS     R1,R0
   \   00000058   2000               MOVS     R0,R4
   \   0000005A   ........           _BLF     GUIonMessage_SetMenuItemSecondLineText,??GUIonMessage_SetMenuItemSecondLineText??rT
    560              }
    561            }
    562            return 1;
   \                     ??Editor_onMessage_1:
   \   0000005E   0120               MOVS     R0,#+1
   \   00000060   70BD               POP      {R4-R6,PC}       ;; return
   \   00000062   C046               Nop      
   \                     ??Editor_onMessage_2:
   \   00000064   ........           DC32     EditorIcons
   \   00000068   A10E0000           DC32     0xea1
   \   0000006C   8F190000           DC32     0x198f
    563          }

   \                                 In segment CODE, align 4, keep-with-next
    564          int pg_SC_Editor_Main_EnterAction(void* data, BOOK* book)
    565          {
   \                     ??pg_SC_Editor_Main_EnterAction:
   \   00000000   10B5               PUSH     {R4,LR}
   \   00000002   0C00               MOVS     R4,R1
    566            GotoShortcut_Book* mbk = (GotoShortcut_Book*)book;
    567            FREE_GUI(mbk->Editor);
   \   00000004   E069               LDR      R0,[R4, #+28]
   \   00000006   0028               CMP      R0,#+0
   \   00000008   03D0               BEQ      ??pg_SC_Editor_Main_EnterAction_1
   \   0000000A   ........           _BLF     GUIObject_Destroy,??GUIObject_Destroy??rT
   \   0000000E   0020               MOVS     R0,#+0
   \   00000010   E061               STR      R0,[R4, #+28]
    568            mbk->Editor = CreateListMenu(mbk, UIDisplay_Main);
   \                     ??pg_SC_Editor_Main_EnterAction_1:
   \   00000012   0021               MOVS     R1,#+0
   \   00000014   2000               MOVS     R0,R4
   \   00000016   ........           _BLF     CreateListMenu,??CreateListMenu??rT
    569            GUIObject_SetTitleText(mbk->Editor, EDITOR_TITLE_TXT);
   \   0000001A   ....               LDR      R1,??Subroutine39_0  ;; 0x2755
   \   0000001C   E061               STR      R0,[R4, #+28]
   \   0000001E   ........           _BLF     GUIObject_SetTitleText,??GUIObject_SetTitleText??rT
    570            ListMenu_SetItemCount(mbk->Editor, 2);
   \   00000022   E069               LDR      R0,[R4, #+28]
   \   00000024   0221               MOVS     R1,#+2
   \   00000026   ........           _BLF     ListMenu_SetItemCount,??ListMenu_SetItemCount??rT
    571            ListMenu_SetCursorToItem(mbk->Editor, 0);
   \   0000002A   E069               LDR      R0,[R4, #+28]
   \   0000002C   0021               MOVS     R1,#+0
   \   0000002E   ........           _BLF     ListMenu_SetCursorToItem,??ListMenu_SetCursorToItem??rT
    572            ListMenu_SetItemStyle(mbk->Editor, 3);
   \   00000032   E069               LDR      R0,[R4, #+28]
   \   00000034   0321               MOVS     R1,#+3
   \   00000036   ........           _BLF     ListMenu_SetItemStyle,??ListMenu_SetItemStyle??rT
    573            ListMenu_SetOnMessage(mbk->Editor, Editor_onMessage); 
   \   0000003A   ....               LDR      R1,??Subroutine39_0+0x4  ;; ??Editor_onMessage
   \   0000003C   E069               LDR      R0,[R4, #+28]
   \   0000003E   ........           _BLF     ListMenu_SetOnMessage,??ListMenu_SetOnMessage??rT
    574            GUIObject_SoftKeys_SetAction(mbk->Editor, ACTION_SELECT1, Editor_onSelect);
   \   00000042   ....               LDR      R1,??DataTable8  ;; 0xfc2
   \   00000044   ....               LDR      R2,??Subroutine39_0+0x8  ;; ??Editor_onSelect
   \   00000046   E069               LDR      R0,[R4, #+28]
   \   00000048   ........           _BLF     GUIObject_SoftKeys_SetAction,??GUIObject_SoftKeys_SetAction??rT
    575            GUIObject_SoftKeys_SetAction(mbk->Editor, ACTION_BACK, Editor_onBack);
   \   0000004C   ....               LDR      R2,??Subroutine39_0+0xC  ;; ??Editor_onBack
   \   0000004E   E069               LDR      R0,[R4, #+28]
   \   00000050   FC21               MOVS     R1,#+252
   \   00000052   0901               LSLS     R1,R1,#+4
   \   00000054   ........           _BLF     GUIObject_SoftKeys_SetAction,??GUIObject_SoftKeys_SetAction??rT
    576            GUIObject_Show(mbk->Editor);
   \   00000058   E069               LDR      R0,[R4, #+28]
   \   0000005A   C046               Nop      
   \   0000005C                      REQUIRE ?Subroutine39
   \   0000005C                      ;; // Fall through to label ?Subroutine39
    577            return 1;
    578          }
    579          

   \                                 In segment CODE, align 4, keep-with-next
    580          int CloseEditorMenu(void* data, BOOK* book)
    581          {
   \                     ??CloseEditorMenu:
   \   00000000   30B5               PUSH     {R4,R5,LR}
   \   00000002   0C00               MOVS     R4,R1
    582            GotoShortcut_Book* mbk = (GotoShortcut_Book*)book;
    583            mbk->CurrentPos = ListMenu_GetSelectedItem(mbk->MainMenu);
   \   00000004   2500               MOVS     R5,R4
   \   00000006   1835               ADDS     R5,R5,#+24
   \   00000008   2868               LDR      R0,[R5, #+0]
   \   0000000A   4434               ADDS     R4,R4,#+68
   \   0000000C   ........           _BLF     ListMenu_GetSelectedItem,??ListMenu_GetSelectedItem??rT
   \   00000010   2070               STRB     R0,[R4, #+0]
    584            FREE_GUI(mbk->Editor);
   \   00000012   6868               LDR      R0,[R5, #+4]
   \   00000014   0028               CMP      R0,#+0
   \   00000016   03D0               BEQ      ??CloseEditorMenu_1
   \   00000018   ........           _BLF     GUIObject_Destroy,??GUIObject_Destroy??rT
   \   0000001C   0020               MOVS     R0,#+0
   \   0000001E   6860               STR      R0,[R5, #+4]
    585            return 1;
   \                     ??CloseEditorMenu_1:
   \   00000020   0120               MOVS     R0,#+1
   \   00000022   30BD               POP      {R4,R5,PC}       ;; return
    586          }
    587          

   \                                 In segment DATA_C, align 4, align-sorted
    588          const PAGE_MSG Goto_Editor_Main_PageEvents[] = 
   \                     Goto_Editor_Main_PageEvents:
   \   00000000   0F000000....       DC32 15, ??pg_SC_Editor_Main_EnterAction, 2
   \              ....02000000
   \   0000000C   ........1000       DC32 ??pg_SC_Editor_Main_AcceptAction, 16, ??CloseEditorMenu, 0, 0H
   \              0000........
   \              000000000000
   \              0000        
    589          {
    590            PAGE_ENTER_EVENT, pg_SC_Editor_Main_EnterAction,
    591            ACCEPT_EVENT,     pg_SC_Editor_Main_AcceptAction,
    592            PAGE_EXIT_EVENT,  CloseEditorMenu,
    593            NIL_EVENT,        NULL
    594          };

   \                                 In segment DATA_C, align 4, align-sorted
    595          const PAGE_DESC Goto_Editor_Main_PageDesc = {EDITOR_MAIN_BASEPAGE_NAME, 0, Goto_Editor_Main_PageEvents};
   \                     Goto_Editor_Main_PageDesc:
   \   00000000   ........0000       DC32 `?<Constant "SC_Editor_Main_Page">`, 0H
   \              0000        
   \   00000008   ........           DC32 Goto_Editor_Main_PageEvents
    596          

   \                                 In segment CODE, align 4, keep-with-next
    597          int pg_SC_Editor_Main_AcceptAction(void* data, BOOK* book)
    598          {
   \                     ??pg_SC_Editor_Main_AcceptAction:
   \   00000000   00B5               PUSH     {LR}
   \   00000002   0800               MOVS     R0,R1
    599            BookObj_GotoPage(book, &Goto_Editor_Main_PageDesc);
   \   00000004   ....               LDR      R1,??DataTable10  ;; Goto_Editor_Main_PageDesc
   \   00000006   ........           _BLF     BookObj_GotoPage,??BookObj_GotoPage??rT
    600            return 0;
   \   0000000A   0020               MOVS     R0,#+0
   \   0000000C   00BD               POP      {PC}             ;; return
    601          }
    602          

   \                                 In segment CODE, align 4, keep-with-next
    603          void EditorRun(BOOK* book, int mode)
    604          {
   \                     ??EditorRun:
   \   00000000   30B5               PUSH     {R4,R5,LR}
   \   00000002   0400               MOVS     R4,R0
    605            GotoShortcut_Book* mbk = (GotoShortcut_Book*)book;
    606            if (mode == ADDING_MODE)
   \   00000004   0229               CMP      R1,#+2
   \   00000006   0ED1               BNE      ??EditorRun_1
    607            {
    608              SHORTCUT* Shortcut = (SHORTCUT *)malloc(sizeof(SHORTCUT));
   \   00000008   1020               MOVS     R0,#+16
   \   0000000A   ........           _BLF     ??malloc,??malloc??rT
   \   0000000E   0500               MOVS     R5,R0
    609              memset(Shortcut, NULL, sizeof(SHORTCUT));
   \   00000010   1022               MOVS     R2,#+16
   \   00000012   0021               MOVS     R1,#+0
   \   00000014   ........           _BLF     memset,??memset??rT
    610              List_InsertFirst(mbk->Items, Shortcut);
   \   00000018   E06B               LDR      R0,[R4, #+60]
   \   0000001A   2900               MOVS     R1,R5
   \   0000001C   ........           _BLF     List_InsertFirst,??List_InsertFirst??rT
    611              mbk->Current = (SHORTCUT*)List_Get(mbk->Items, 0);
   \   00000020   E06B               LDR      R0,[R4, #+60]
   \   00000022   0021               MOVS     R1,#+0
   \   00000024   04E0               B.N      ??EditorRun_2
    612            }
    613            else mbk->Current = (SHORTCUT*) List_Get(mbk->Items, ListMenu_GetSelectedItem(mbk->MainMenu));
   \                     ??EditorRun_1:
   \   00000026   A069               LDR      R0,[R4, #+24]
   \   00000028   ........           _BLF     ListMenu_GetSelectedItem,??ListMenu_GetSelectedItem??rT
   \   0000002C   0100               MOVS     R1,R0
   \   0000002E   E06B               LDR      R0,[R4, #+60]
   \                     ??EditorRun_2:
   \   00000030   ........           _BLF     List_Get,??List_Get??rT
   \   00000034   A064               STR      R0,[R4, #+72]
    614            
    615            BookObj_CallPage(mbk, &Goto_Editor_Main_PageDesc);
   \   00000036   ....               LDR      R1,??DataTable10  ;; Goto_Editor_Main_PageDesc
   \   00000038   ....               B.N      ??Subroutine40_0
    616          }

   \                                 In segment CODE, align 4, keep-with-next
   \                     ??DataTable2:
   \   00000000   ........           DC32     ??Action_Back

   \                                 In segment CODE, align 4, keep-with-next
   \                     ??DataTable3:
   \   00000000   C20F0000           DC32     0xfc2

   \                                 In segment CODE, align 4, keep-with-next
   \                     ??DataTable4:
   \   00000000   ........           DC32     ??IsMyBook

   \                                 In segment CODE, align 4, keep-with-next
   \                     ??DataTable7:
   \   00000000   ........           DC32     ??Action_Back

   \                                 In segment CODE, align 4, keep-with-next
   \                     ??DataTable8:
   \   00000000   C20F0000           DC32     0xfc2

   \                                 In segment CODE, align 4, keep-with-next
   \                     ??DataTable10:
   \   00000000   ........           DC32     Goto_Editor_Main_PageDesc

   \                                 In segment DATA_C, align 4, align-sorted
   \                     `?<Constant "SC_Editor_SetJava_Page">`:
   \   00000000   53435F456469       DC8 "SC_Editor_SetJava_Page"
   \              746F725F5365
   \              744A6176615F
   \              5061676500  
   \   00000017   00                 DC8 0

   \                                 In segment DATA_C, align 4, align-sorted
   \                     `?<Constant "SC_Editor_SelectElf_Page">`:
   \   00000000   53435F456469       DC8 "SC_Editor_SelectElf_Page"
   \              746F725F5365
   \              6C656374456C
   \              665F50616765
   \              00          
   \   00000019   000000             DC8 0, 0, 0

   \                                 In segment DATA_C, align 4, align-sorted
   \                     `?<Constant "SC_Editor_EventInput_...">`:
   \   00000000   53435F456469       DC8 "SC_Editor_EventInput_Page"
   \              746F725F4576
   \              656E74496E70
   \              75745F506167
   \              6500        
   \   0000001A   0000               DC8 0, 0

   \                                 In segment DATA_C, align 4, align-sorted
   \                     `?<Constant "SC_Editor_SelectFolde...">`:
   \   00000000   53435F456469       DC8 "SC_Editor_SelectFolder_Page"
   \              746F725F5365
   \              6C656374466F
   \              6C6465725F50
   \              61676500    

   \                                 In segment DATA_C, align 4, align-sorted
   \                     `?<Constant "SC_Editor_TypesList_Page">`:
   \   00000000   53435F456469       DC8 "SC_Editor_TypesList_Page"
   \              746F725F5479
   \              7065734C6973
   \              745F50616765
   \              00          
   \   00000019   000000             DC8 0, 0, 0

   \                                 In segment DATA_C, align 4, align-sorted
   \                     `?<Constant "SC_Editor_LabelInput_...">`:
   \   00000000   53435F456469       DC8 "SC_Editor_LabelInput_Page"
   \              746F725F4C61
   \              62656C496E70
   \              75745F506167
   \              6500        
   \   0000001A   0000               DC8 0, 0

   \                                 In segment DATA_C, align 4, align-sorted
   \                     `?<Constant "SC_Editor_Main_Page">`:
   \   00000000   53435F456469       DC8 "SC_Editor_Main_Page"
   \              746F725F4D61
   \              696E5F506167
   \              6500        

   \                                 In segment DATA_C, align 4, align-sorted
   \                     `?<Constant L"\\x4d\\x61\\x69\\x6e\\x4d\\x65\\x6e\\x75"`:
   \   00000000   4D0061006900       DC8 4DH, 0, 61H, 0, 69H, 0, 6EH, 0
   \              6E00        
   \   00000008   4D0065006E00       DC8 4DH, 0, 65H, 0, 6EH, 0, 75H, 0
   \              7500        
   \   00000010   0000               DC8 0, 0
   \   00000012   000000000000       DC8 0, 0, 0, 0, 0, 0, 0, 0, 0, 0, 0, 0, 0, 0, 0, 0, 0, 0, 0, 0, 0, 0
   \              000000000000
   \              000000000000
   \              00000000    
   \   00000028   4D0061006900       DC8 4DH, 0, 61H, 0, 69H, 0, 6EH, 0
   \              6E00        
   \   00000030   4D0065006E00       DC8 4DH, 0, 65H, 0, 6EH, 0, 75H, 0
   \              7500        
   \   00000038   0000               DC8 0, 0
   \   0000003A   0000               DC8 0, 0

   \                                 In segment DATA_C, align 4, align-sorted
   \                     `?<Constant L"\\x2f\\x75\\x73\\x62\\x2f\\x6f\\x74\\x68\\`:
   \   00000000   2F0075007300       DC8 2FH, 0, 75H, 0, 73H, 0, 62H, 0
   \              6200        
   \   00000008   2F006F007400       DC8 2FH, 0, 6FH, 0, 74H, 0, 68H, 0
   \              6800        
   \   00000010   650072002F00       DC8 65H, 0, 72H, 0, 2FH, 0, 5AH, 0
   \              5A00        
   \   00000018   420069006E00       DC8 42H, 0, 69H, 0, 6EH, 0, 0, 0
   \              0000        
   \   00000020   2F0063006100       DC8 2FH, 0, 63H, 0, 61H, 0, 72H, 0
   \              7200        
   \   00000028   64002F006F00       DC8 64H, 0, 2FH, 0, 6FH, 0, 74H, 0
   \              7400        
   \   00000030   680065007200       DC8 68H, 0, 65H, 0, 72H, 0, 2FH, 0
   \              2F00        
   \   00000038   5A0042006900       DC8 5AH, 0, 42H, 0, 69H, 0, 6EH, 0
   \              6E00        
   \   00000040   0000               DC8 0, 0
   \   00000042   0000               DC8 0, 0
   \   00000044   45004C004600       DC8 45H, 0, 4CH, 0, 46H, 0, 73H, 0
   \              7300        
   \   0000004C   0000               DC8 0, 0
   \   0000004E   0000               DC8 0, 0
   \   00000050   2A002E006500       DC8 2AH, 0, 2EH, 0, 65H, 0, 6CH, 0
   \              6C00        
   \   00000058   66000000           DC8 66H, 0, 0, 0

   \                                 In segment DATA_C, align 4, align-sorted
   \                     `?<Constant L"\\x53\\x68\\x6f\\x72\\x74\\x63\\x75\\x74"`:
   \   00000000   530068006F00       DC8 53H, 0, 68H, 0, 6FH, 0, 72H, 0
   \              7200        
   \   00000008   740063007500       DC8 74H, 0, 63H, 0, 75H, 0, 74H, 0
   \              7400        
   \   00000010   0000               DC8 0, 0
   \   00000012   0000               DC8 0, 0

   \                                 In segment DATA_C, align 4, align-sorted
   \                     `?<Constant L"\\x4a\\x61\\x76\\x61">`:
   \   00000000   4A0061007600       DC8 4AH, 0, 61H, 0, 76H, 0, 61H, 0
   \              6100        
   \   00000008   0000               DC8 0, 0
   \   0000000A   0000               DC8 0, 0

   \                                 In segment DATA_C, align 4, align-sorted
   \                     `?<Constant L"\\x45\\x6c\\x66">`:
   \   00000000   45006C006600       DC8 45H, 0, 6CH, 0, 66H, 0, 0, 0
   \              0000        

   \                                 In segment DATA_C, align 4, align-sorted
   \                     `?<Constant L"\\x45\\x76\\x65\\x6e\\x74">`:
   \   00000000   450076006500       DC8 45H, 0, 76H, 0, 65H, 0, 6EH, 0
   \              6E00        
   \   00000008   74000000           DC8 74H, 0, 0, 0

   \                                 In segment DATA_C, align 4, align-sorted
   \                     `?<Constant L"\\x46\\x6f\\x6c\\x64\\x65\\x72">`:
   \   00000000   46006F006C00       DC8 46H, 0, 6FH, 0, 6CH, 0, 64H, 0
   \              6400        
   \   00000008   650072000000       DC8 65H, 0, 72H, 0, 0, 0
   \   0000000E   0000               DC8 0, 0

   \                                 In segment DATA_C, align 4, align-sorted
   \                     `?<Constant "SC_Editor_SelectShort...">`:
   \   00000000   53435F456469       DC8 "SC_Editor_SelectShortcut_Page"
   \              746F725F5365
   \              6C6563745368
   \              6F7274637574
   \              5F5061676500
   \   0000001E   0000               DC8 0, 0

   \                                 In segment DATA_C, align 4, align-sorted
   \                     `?<Constant {&L"\\x53\\x68\\x6f\\x72\\x74\\x63\\x75\\x7`:
   \   00000000   ........           DC32 `?<Constant L"\\x53\\x68\\x6f\\x72\\x74\\x63\\x75\\x74"`
   \   00000004   ........           DC32 `?<Constant L"\\x4a\\x61\\x76\\x61">`
   \   00000008   ........           DC32 `?<Constant L"\\x45\\x6c\\x66">`
   \   0000000C   ........           DC32 `?<Constant L"\\x45\\x76\\x65\\x6e\\x74">`
   \   00000010   ........           DC32 `?<Constant L"\\x46\\x6f\\x6c\\x64\\x65\\x72">`

   Maximum stack usage in bytes:

     Function                       CSTACK
     --------                       ------
     AcceptShortcut(BOOK *)             8
     Action_Back(BOOK *, GUI *)         4
     Cancel_MainMenu_DB(void *, BOOK *)
                                        4
     CloseEditorMenu(void *, BOOK *)
                                       12
     CloseJavaList(void *, BOOK *)      8
     CreateDataBrowser(void *, BOOK *)
                                       28
     CreateJavaList(void *, BOOK *)     8
     CreateMainMenu(void *, BOOK *)     8
     DB_Filter(wchar_t const *, wchar_t const *, wchar_t const *)
                                       40
     EditorRun(BOOK *, int)            12
     Editor_onBack(BOOK *, GUI *)       8
     Editor_onMessage(GUI_MESSAGE *)
                                       16
     Editor_onSelect(BOOK *, GUI *)    12
     Get_SCTypes_Text(int)             28
     JavaMenu_Callback(GUI_MESSAGE *)
                                       12
     JavaMenu_Ok(BOOK *, GUI *)        12
     Menu_SetMainMenu(BOOK *, GUI *)
                                       60
     Menu_SetShortcut(BOOK *, GUI *)
                                      144
     OnBackEventInput(BOOK *, wchar_t *, int)
                                        8
     OnBackFolderInput(BOOK *, wchar_t *, int)
                                        8
     OnOkCaptionInput(BOOK *, wchar_t *, int)
                                        8
     OnOkEventInput(BOOK *, wchar_t *, int)
                                       16
     OnOkFolderInput(BOOK *, wchar_t *, int)
                                       12
     SelFolder_Enter(BOOK *, GUI *)    20
     Select_DB(void *, BOOK *)         16
     TypesList_onMessage(GUI_MESSAGE *)
                                       12
     TypesList_onSelect(BOOK *, GUI *)
                                       12
     pg_SC_Editor_EventInput_EnterAction(void *, BOOK *)
                                        8
     pg_SC_Editor_EventInput_ExitAction(void *, BOOK *)
                                        8
     pg_SC_Editor_LabelInput_EnterAction(void *, BOOK *)
                                        8
     pg_SC_Editor_LabelInput_ExitAction(void *, BOOK *)
                                        8
     pg_SC_Editor_Main_AcceptAction(void *, BOOK *)
                                        4
     pg_SC_Editor_Main_EnterAction(void *, BOOK *)
                                        8
     pg_SC_Editor_SelectFolder_EnterAction(void *, BOOK *)
                                        8
     pg_SC_Editor_SelectFolder_ExitAction(void *, BOOK *)
                                        8
     pg_SC_Editor_TypesList_EnterAction(void *, BOOK *)
                                        8
     pg_SC_Editor_TypesList_ExitAction(void *, BOOK *)
                                        8


   Segment part sizes:

     Function/Label                 Bytes
     --------------                 -----
     TypesIcons                       12
     EditorIcons                       4
     Action_Back(BOOK *, GUI *)       10
     AcceptShortcut(BOOK *)           12
     ?Subroutine37                    10
     Menu_SetMainMenu(BOOK *, GUI *)
                                     128
     Menu_SetShortcut(BOOK *, GUI *)
                                     128
     Cancel_MainMenu_DB(void *, BOOK *)
                                      14
     CreateMainMenu(void *, BOOK *)   84
     Goto_Editor_MainMenu_PageEvents
                                      32
     JavaMenu_Callback(GUI_MESSAGE *)
                                      68
     JavaMenu_Ok(BOOK *, GUI *)       68
     ?Subroutine41                     8
     CreateJavaList(void *, BOOK *)  108
     ?Subroutine38                    20
     CloseJavaList(void *, BOOK *)    36
     Select_DB(void *, BOOK *)        84
     DB_Filter(wchar_t const *, wchar_t const *, wchar_t const *)
                                      42
     CreateDataBrowser(void *, BOOK *)
                                     124
     OnOkEventInput(BOOK *, wchar_t *, int)
                                      72
     OnBackEventInput(BOOK *, wchar_t *, int)
                                      22
     pg_SC_Editor_EventInput_EnterAction(void *, BOOK *)
                                     120
     pg_SC_Editor_EventInput_ExitAction(void *, BOOK *)
                                      22
     SelFolder_Enter(BOOK *, GUI *)   34
     OnBackFolderInput(BOOK *, wchar_t *, int)
                                      22
     OnOkFolderInput(BOOK *, wchar_t *, int)
                                      52
     pg_SC_Editor_SelectFolder_EnterAction(void *, BOOK *)
                                     140
     pg_SC_Editor_SelectFolder_ExitAction(void *, BOOK *)
                                      22
     Goto_Editor_MainMenu_PageDesc    60
     Goto_Editor_JavaList_PageEvents
                                      24
     Goto_Editor_DataBrowser_PageEvents
                                      40
     Goto_Editor_EventInput_PageEvents
                                      24
     Goto_Editor_SelectFolder_PageEvents
                                      24
     Get_SCTypes_Text(int)            40
     TypesList_onSelect(BOOK *, GUI *)
                                      60
     ?Subroutine40                    16
     TypesList_onMessage(GUI_MESSAGE *)
                                      56
     pg_SC_Editor_TypesList_EnterAction(void *, BOOK *)
                                      84
     ?Subroutine39                    24
     pg_SC_Editor_TypesList_ExitAction(void *, BOOK *)
                                      22
     Goto_Editor_TypesList_PageEvents
                                      24
     OnOkCaptionInput(BOOK *, wchar_t *, int)
                                      20
     pg_SC_Editor_LabelInput_EnterAction(void *, BOOK *)
                                     104
     pg_SC_Editor_LabelInput_ExitAction(void *, BOOK *)
                                      22
     Goto_Editor_TypesList_PageDesc   24
     Goto_Editor_CaptionInput_PageEvents
                                      24
     Editor_onSelect(BOOK *, GUI *)   24
     Editor_onBack(BOOK *, GUI *)     32
     Editor_onMessage(GUI_MESSAGE *)
                                     112
     pg_SC_Editor_Main_EnterAction(void *, BOOK *)
                                      92
     CloseEditorMenu(void *, BOOK *)
                                      36
     Goto_Editor_Main_PageEvents      32
     Goto_Editor_Main_PageDesc        12
     pg_SC_Editor_Main_AcceptAction(void *, BOOK *)
                                      14
     EditorRun(BOOK *, int)           58
     ??DataTable2                      4
     ??DataTable3                      4
     ??DataTable4                      4
     ??DataTable7                      4
     ??DataTable8                      4
     ??DataTable10                     4
     ?<Constant "SC_Editor_SetJava_Page">
                                      24
     ?<Constant "SC_Editor_SelectElf_Page">
                                      28
     ?<Constant "SC_Editor_EventInput_...">
                                      28
     ?<Constant "SC_Editor_SelectFolde...">
                                      28
     ?<Constant "SC_Editor_TypesList_Page">
                                      28
     ?<Constant "SC_Editor_LabelInput_...">
                                      28
     ?<Constant "SC_Editor_Main_Page">
                                      20
     ?<Constant L"\x4d\x61\x69\x6e\x4d\x65\x6e\x75"
                                      60
     ?<Constant L"\x2f\x75\x73\x62\x2f\x6f\x74\x68\
                                      92
     ?<Constant L"\x53\x68\x6f\x72\x74\x63\x75\x74"
                                      20
     ?<Constant L"\x4a\x61\x76\x61">
                                      12
     ?<Constant L"\x45\x6c\x66">       8
     ?<Constant L"\x45\x76\x65\x6e\x74">
                                      12
     ?<Constant L"\x46\x6f\x6c\x64\x65\x72">
                                      16
     ?<Constant "SC_Editor_SelectShort...">
                                      32
     ?<Constant {&L"\x53\x68\x6f\x72\x74\x63\x75\x7
                                      20
      Others                         912

 
 3 202 bytes in segment CODE
   792 bytes in segment DATA_C
 
 2 290 bytes of CODE  memory (+ 912 bytes shared)
   792 bytes of CONST memory

Errors: none
Warnings: none
